ARM GAS  C:\Users\bella\AppData\Local\Temp\ccmflVix.s 			page 1


   1              		.syntax unified
   2              		.cpu cortex-m3
   3              		.fpu softvfp
   4              		.eabi_attribute 20, 1
   5              		.eabi_attribute 21, 1
   6              		.eabi_attribute 23, 3
   7              		.eabi_attribute 24, 1
   8              		.eabi_attribute 25, 1
   9              		.eabi_attribute 26, 1
  10              		.eabi_attribute 30, 1
  11              		.eabi_attribute 34, 1
  12              		.eabi_attribute 18, 4
  13              		.thumb
  14              		.syntax unified
  15              		.file	"motorFunktioner.c"
  16              		.text
  17              	.Ltext0:
  18              		.cfi_sections	.debug_frame
  19              		.section	.text.korFrem,"ax",%progbits
  20              		.align	2
  21              		.global	korFrem
  22              		.thumb
  23              		.thumb_func
  24              		.type	korFrem, %function
  25              	korFrem:
  26              	.LFB63:
  27              		.file 1 "motorFunktioner.c"
   1:motorFunktioner.c **** /* ========================================
   2:motorFunktioner.c ****  *
   3:motorFunktioner.c ****  * Copyright YOUR COMPANY, THE YEAR
   4:motorFunktioner.c ****  * All Rights Reserved
   5:motorFunktioner.c ****  * UNPUBLISHED, LICENSED SOFTWARE.
   6:motorFunktioner.c ****  *
   7:motorFunktioner.c ****  * CONFIDENTIAL AND PROPRIETARY INFORMATION
   8:motorFunktioner.c ****  * WHICH IS THE PROPERTY OF your company.
   9:motorFunktioner.c ****  *
  10:motorFunktioner.c ****  * ========================================
  11:motorFunktioner.c **** */
  12:motorFunktioner.c **** #include "motorFunktioner.h"
  13:motorFunktioner.c **** 
  14:motorFunktioner.c **** void korFrem(int calL, int calR, int PWML, int PWMR) {
  28              		.loc 1 14 0
  29              		.cfi_startproc
  30              		@ args = 0, pretend = 0, frame = 0
  31              		@ frame_needed = 0, uses_anonymous_args = 0
  32              	.LVL0:
  33 0000 F8B5     		push	{r3, r4, r5, r6, r7, lr}
  34              		.cfi_def_cfa_offset 24
  35              		.cfi_offset 3, -24
  36              		.cfi_offset 4, -20
  37              		.cfi_offset 5, -16
  38              		.cfi_offset 6, -12
  39              		.cfi_offset 7, -8
  40              		.cfi_offset 14, -4
  41 0002 0746     		mov	r7, r0
  42 0004 0E46     		mov	r6, r1
  43 0006 1546     		mov	r5, r2
ARM GAS  C:\Users\bella\AppData\Local\Temp\ccmflVix.s 			page 2


  44 0008 1C46     		mov	r4, r3
  15:motorFunktioner.c **** mode_Write(0b00000000);
  45              		.loc 1 15 0
  46 000a 0020     		movs	r0, #0
  47              	.LVL1:
  48 000c FFF7FEFF 		bl	mode_Write
  49              	.LVL2:
  16:motorFunktioner.c **** Motorpwm_Left_WriteCompare (calL + PWML);
  50              		.loc 1 16 0
  51 0010 7819     		adds	r0, r7, r5
  52 0012 C0B2     		uxtb	r0, r0
  53 0014 FFF7FEFF 		bl	Motorpwm_Left_WriteCompare
  54              	.LVL3:
  17:motorFunktioner.c **** Motorpwm_right_WriteCompare(calR + PWMR);
  55              		.loc 1 17 0
  56 0018 3019     		adds	r0, r6, r4
  57 001a C0B2     		uxtb	r0, r0
  58 001c FFF7FEFF 		bl	Motorpwm_right_WriteCompare
  59              	.LVL4:
  18:motorFunktioner.c **** 
  19:motorFunktioner.c **** Enable_Right_Write(1);
  60              		.loc 1 19 0
  61 0020 0120     		movs	r0, #1
  62 0022 FFF7FEFF 		bl	Enable_Right_Write
  63              	.LVL5:
  20:motorFunktioner.c **** Enable_Left_Write(1);
  64              		.loc 1 20 0
  65 0026 0120     		movs	r0, #1
  66 0028 FFF7FEFF 		bl	Enable_Left_Write
  67              	.LVL6:
  68 002c F8BD     		pop	{r3, r4, r5, r6, r7, pc}
  69              		.cfi_endproc
  70              	.LFE63:
  71              		.size	korFrem, .-korFrem
  72 002e 00BF     		.section	.text.fastStop,"ax",%progbits
  73              		.align	2
  74              		.global	fastStop
  75              		.thumb
  76              		.thumb_func
  77              		.type	fastStop, %function
  78              	fastStop:
  79              	.LFB64:
  21:motorFunktioner.c **** }
  22:motorFunktioner.c **** 
  23:motorFunktioner.c **** void fastStop() {
  80              		.loc 1 23 0
  81              		.cfi_startproc
  82              		@ args = 0, pretend = 0, frame = 0
  83              		@ frame_needed = 0, uses_anonymous_args = 0
  84 0000 08B5     		push	{r3, lr}
  85              		.cfi_def_cfa_offset 8
  86              		.cfi_offset 3, -8
  87              		.cfi_offset 14, -4
  24:motorFunktioner.c **** 
  25:motorFunktioner.c **** Enable_Right_Write(1);
  88              		.loc 1 25 0
  89 0002 0120     		movs	r0, #1
ARM GAS  C:\Users\bella\AppData\Local\Temp\ccmflVix.s 			page 3


  90 0004 FFF7FEFF 		bl	Enable_Right_Write
  91              	.LVL7:
  26:motorFunktioner.c **** Enable_Left_Write(1);
  92              		.loc 1 26 0
  93 0008 0120     		movs	r0, #1
  94 000a FFF7FEFF 		bl	Enable_Left_Write
  95              	.LVL8:
  27:motorFunktioner.c **** mode_Write(0b00000001);
  96              		.loc 1 27 0
  97 000e 0120     		movs	r0, #1
  98 0010 FFF7FEFF 		bl	mode_Write
  99              	.LVL9:
 100 0014 08BD     		pop	{r3, pc}
 101              		.cfi_endproc
 102              	.LFE64:
 103              		.size	fastStop, .-fastStop
 104 0016 00BF     		.section	.text.stop,"ax",%progbits
 105              		.align	2
 106              		.global	stop
 107              		.thumb
 108              		.thumb_func
 109              		.type	stop, %function
 110              	stop:
 111              	.LFB65:
  28:motorFunktioner.c **** }
  29:motorFunktioner.c **** 
  30:motorFunktioner.c **** void stop(){
 112              		.loc 1 30 0
 113              		.cfi_startproc
 114              		@ args = 0, pretend = 0, frame = 0
 115              		@ frame_needed = 0, uses_anonymous_args = 0
 116 0000 08B5     		push	{r3, lr}
 117              		.cfi_def_cfa_offset 8
 118              		.cfi_offset 3, -8
 119              		.cfi_offset 14, -4
  31:motorFunktioner.c **** Enable_Right_Write(0);
 120              		.loc 1 31 0
 121 0002 0020     		movs	r0, #0
 122 0004 FFF7FEFF 		bl	Enable_Right_Write
 123              	.LVL10:
  32:motorFunktioner.c **** Enable_Left_Write(0);
 124              		.loc 1 32 0
 125 0008 0020     		movs	r0, #0
 126 000a FFF7FEFF 		bl	Enable_Left_Write
 127              	.LVL11:
 128 000e 08BD     		pop	{r3, pc}
 129              		.cfi_endproc
 130              	.LFE65:
 131              		.size	stop, .-stop
 132              		.section	.text.kortilbage,"ax",%progbits
 133              		.align	2
 134              		.global	kortilbage
 135              		.thumb
 136              		.thumb_func
 137              		.type	kortilbage, %function
 138              	kortilbage:
 139              	.LFB66:
ARM GAS  C:\Users\bella\AppData\Local\Temp\ccmflVix.s 			page 4


  33:motorFunktioner.c **** 
  34:motorFunktioner.c **** }
  35:motorFunktioner.c **** 
  36:motorFunktioner.c **** void kortilbage(int calL, int calR, int PWML, int PWMR) {
 140              		.loc 1 36 0
 141              		.cfi_startproc
 142              		@ args = 0, pretend = 0, frame = 0
 143              		@ frame_needed = 0, uses_anonymous_args = 0
 144              	.LVL12:
 145 0000 F8B5     		push	{r3, r4, r5, r6, r7, lr}
 146              		.cfi_def_cfa_offset 24
 147              		.cfi_offset 3, -24
 148              		.cfi_offset 4, -20
 149              		.cfi_offset 5, -16
 150              		.cfi_offset 6, -12
 151              		.cfi_offset 7, -8
 152              		.cfi_offset 14, -4
 153 0002 0746     		mov	r7, r0
 154 0004 0E46     		mov	r6, r1
 155 0006 1546     		mov	r5, r2
 156 0008 1C46     		mov	r4, r3
  37:motorFunktioner.c **** mode_Write(0b00000110);
 157              		.loc 1 37 0
 158 000a 0620     		movs	r0, #6
 159              	.LVL13:
 160 000c FFF7FEFF 		bl	mode_Write
 161              	.LVL14:
  38:motorFunktioner.c **** Motorpwm_Left_WriteCompare (calL + PWML);
 162              		.loc 1 38 0
 163 0010 7819     		adds	r0, r7, r5
 164 0012 C0B2     		uxtb	r0, r0
 165 0014 FFF7FEFF 		bl	Motorpwm_Left_WriteCompare
 166              	.LVL15:
  39:motorFunktioner.c **** Motorpwm_right_WriteCompare(calR + PWMR);
 167              		.loc 1 39 0
 168 0018 3019     		adds	r0, r6, r4
 169 001a C0B2     		uxtb	r0, r0
 170 001c FFF7FEFF 		bl	Motorpwm_right_WriteCompare
 171              	.LVL16:
  40:motorFunktioner.c **** Enable_Right_Write(1);
 172              		.loc 1 40 0
 173 0020 0120     		movs	r0, #1
 174 0022 FFF7FEFF 		bl	Enable_Right_Write
 175              	.LVL17:
  41:motorFunktioner.c **** Enable_Left_Write(1);
 176              		.loc 1 41 0
 177 0026 0120     		movs	r0, #1
 178 0028 FFF7FEFF 		bl	Enable_Left_Write
 179              	.LVL18:
 180 002c F8BD     		pop	{r3, r4, r5, r6, r7, pc}
 181              		.cfi_endproc
 182              	.LFE66:
 183              		.size	kortilbage, .-kortilbage
 184 002e 00BF     		.section	.text.drejVenstre,"ax",%progbits
 185              		.align	2
 186              		.global	drejVenstre
 187              		.thumb
ARM GAS  C:\Users\bella\AppData\Local\Temp\ccmflVix.s 			page 5


 188              		.thumb_func
 189              		.type	drejVenstre, %function
 190              	drejVenstre:
 191              	.LFB67:
  42:motorFunktioner.c **** 
  43:motorFunktioner.c **** }
  44:motorFunktioner.c **** 
  45:motorFunktioner.c **** void drejVenstre(int calL, int calR, int PWML, int PWMR){
 192              		.loc 1 45 0
 193              		.cfi_startproc
 194              		@ args = 0, pretend = 0, frame = 0
 195              		@ frame_needed = 0, uses_anonymous_args = 0
 196              	.LVL19:
 197 0000 F8B5     		push	{r3, r4, r5, r6, r7, lr}
 198              		.cfi_def_cfa_offset 24
 199              		.cfi_offset 3, -24
 200              		.cfi_offset 4, -20
 201              		.cfi_offset 5, -16
 202              		.cfi_offset 6, -12
 203              		.cfi_offset 7, -8
 204              		.cfi_offset 14, -4
 205 0002 0746     		mov	r7, r0
 206 0004 0E46     		mov	r6, r1
 207 0006 1546     		mov	r5, r2
 208 0008 1C46     		mov	r4, r3
  46:motorFunktioner.c **** 
  47:motorFunktioner.c **** mode_Write(0b00000010);
 209              		.loc 1 47 0
 210 000a 0220     		movs	r0, #2
 211              	.LVL20:
 212 000c FFF7FEFF 		bl	mode_Write
 213              	.LVL21:
  48:motorFunktioner.c **** Motorpwm_Left_WriteCompare (calL + PWML);
 214              		.loc 1 48 0
 215 0010 7819     		adds	r0, r7, r5
 216 0012 C0B2     		uxtb	r0, r0
 217 0014 FFF7FEFF 		bl	Motorpwm_Left_WriteCompare
 218              	.LVL22:
  49:motorFunktioner.c **** Motorpwm_right_WriteCompare(calR + PWMR);
 219              		.loc 1 49 0
 220 0018 3019     		adds	r0, r6, r4
 221 001a C0B2     		uxtb	r0, r0
 222 001c FFF7FEFF 		bl	Motorpwm_right_WriteCompare
 223              	.LVL23:
  50:motorFunktioner.c **** Enable_Right_Write(1);
 224              		.loc 1 50 0
 225 0020 0120     		movs	r0, #1
 226 0022 FFF7FEFF 		bl	Enable_Right_Write
 227              	.LVL24:
  51:motorFunktioner.c **** Enable_Left_Write(1);
 228              		.loc 1 51 0
 229 0026 0120     		movs	r0, #1
 230 0028 FFF7FEFF 		bl	Enable_Left_Write
 231              	.LVL25:
 232 002c F8BD     		pop	{r3, r4, r5, r6, r7, pc}
 233              		.cfi_endproc
 234              	.LFE67:
ARM GAS  C:\Users\bella\AppData\Local\Temp\ccmflVix.s 			page 6


 235              		.size	drejVenstre, .-drejVenstre
 236 002e 00BF     		.section	.text.drejHojre,"ax",%progbits
 237              		.align	2
 238              		.global	drejHojre
 239              		.thumb
 240              		.thumb_func
 241              		.type	drejHojre, %function
 242              	drejHojre:
 243              	.LFB68:
  52:motorFunktioner.c **** 
  53:motorFunktioner.c **** }
  54:motorFunktioner.c **** 
  55:motorFunktioner.c **** void drejHojre(int calL, int calR, int PWML, int PWMR){
 244              		.loc 1 55 0
 245              		.cfi_startproc
 246              		@ args = 0, pretend = 0, frame = 0
 247              		@ frame_needed = 0, uses_anonymous_args = 0
 248              	.LVL26:
 249 0000 F8B5     		push	{r3, r4, r5, r6, r7, lr}
 250              		.cfi_def_cfa_offset 24
 251              		.cfi_offset 3, -24
 252              		.cfi_offset 4, -20
 253              		.cfi_offset 5, -16
 254              		.cfi_offset 6, -12
 255              		.cfi_offset 7, -8
 256              		.cfi_offset 14, -4
 257 0002 0746     		mov	r7, r0
 258 0004 0E46     		mov	r6, r1
 259 0006 1546     		mov	r5, r2
 260 0008 1C46     		mov	r4, r3
  56:motorFunktioner.c **** 
  57:motorFunktioner.c **** mode_Write(0b00000100);
 261              		.loc 1 57 0
 262 000a 0420     		movs	r0, #4
 263              	.LVL27:
 264 000c FFF7FEFF 		bl	mode_Write
 265              	.LVL28:
  58:motorFunktioner.c **** Motorpwm_Left_WriteCompare (calL + PWML);
 266              		.loc 1 58 0
 267 0010 7819     		adds	r0, r7, r5
 268 0012 C0B2     		uxtb	r0, r0
 269 0014 FFF7FEFF 		bl	Motorpwm_Left_WriteCompare
 270              	.LVL29:
  59:motorFunktioner.c **** Motorpwm_right_WriteCompare(calR + PWMR);
 271              		.loc 1 59 0
 272 0018 3019     		adds	r0, r6, r4
 273 001a C0B2     		uxtb	r0, r0
 274 001c FFF7FEFF 		bl	Motorpwm_right_WriteCompare
 275              	.LVL30:
 276 0020 F8BD     		pop	{r3, r4, r5, r6, r7, pc}
 277              		.cfi_endproc
 278              	.LFE68:
 279              		.size	drejHojre, .-drejHojre
 280 0022 00BF     		.text
 281              	.Letext0:
 282              		.file 2 "c:\\program files (x86)\\cypress\\psoc creator\\4.2\\psoc creator\\import\\gnu\\arm\\5.4.
 283              		.file 3 "c:\\program files (x86)\\cypress\\psoc creator\\4.2\\psoc creator\\import\\gnu\\arm\\5.4.
ARM GAS  C:\Users\bella\AppData\Local\Temp\ccmflVix.s 			page 7


 284              		.file 4 "Generated_Source\\PSoC5/mode.h"
 285              		.file 5 "Generated_Source\\PSoC5/Motorpwm_Left.h"
 286              		.file 6 "Generated_Source\\PSoC5/Motorpwm_right.h"
 287              		.file 7 "Generated_Source\\PSoC5/Enable_Right.h"
 288              		.file 8 "Generated_Source\\PSoC5/Enable_Left.h"
 289              		.file 9 "Generated_Source\\PSoC5/core_cm3.h"