ARM GAS  C:\Users\andre\AppData\Local\Temp\ccJryVGe.s 			page 1


   1              		.syntax unified
   2              		.cpu cortex-m3
   3              		.fpu softvfp
   4              		.eabi_attribute 20, 1
   5              		.eabi_attribute 21, 1
   6              		.eabi_attribute 23, 3
   7              		.eabi_attribute 24, 1
   8              		.eabi_attribute 25, 1
   9              		.eabi_attribute 26, 1
  10              		.eabi_attribute 30, 1
  11              		.eabi_attribute 34, 1
  12              		.eabi_attribute 18, 4
  13              		.thumb
  14              		.syntax unified
  15              		.file	"main.c"
  16              		.text
  17              	.Ltext0:
  18              		.cfi_sections	.debug_frame
  19              		.section	.text.ISR_SPIS_rx_handler,"ax",%progbits
  20              		.align	2
  21              		.global	ISR_SPIS_rx_handler
  22              		.thumb
  23              		.thumb_func
  24              		.type	ISR_SPIS_rx_handler, %function
  25              	ISR_SPIS_rx_handler:
  26              	.LFB65:
  27              		.file 1 "main.c"
   1:main.c        **** //Include filer 
   2:main.c        **** #include "project.h"
   3:main.c        **** #include "motorStyring.h"
   4:main.c        **** #include "opsamlerStyring.h"
   5:main.c        **** #include "sonarSensor.h" 
   6:main.c        **** #include "stdio.h"
   7:main.c        **** //SPI variabler
   8:main.c        **** #define searchBall_ 0b00000001  //1
   9:main.c        **** #define forwards    0b00000010  //2
  10:main.c        **** #define backwards   0b00000011  //3
  11:main.c        **** #define stop_       0b00000100  //4
  12:main.c        **** #define turn_right  0b00000101  //5
  13:main.c        **** #define turn_left   0b00000110  //6
  14:main.c        **** #define stop_f      0b00000111  //7
  15:main.c        **** #define pickup_down 0b00001000  //8 
  16:main.c        **** #define pickup_up   0b00001001  //9
  17:main.c        **** #define pickup_stop 0b00001010  //10
  18:main.c        **** uint8_t slave_bytesRecieved; //spi read
  19:main.c        **** //motorFunktioner variabler
  20:main.c        **** int calR = 0; 
  21:main.c        **** int calL = 0; 
  22:main.c        **** int PWML = 165; 
  23:main.c        **** int PWMR = 165;
  24:main.c        **** //uart variabler
  25:main.c        **** uint8_t uart_out; // global variable for UART output (for testing) 
  26:main.c        **** //Prototyper
  27:main.c        **** CY_ISR_PROTO(ISR_SPIS_rx_handler);
  28:main.c        **** CY_ISR_PROTO(ISR_UART_rx_handler); 
  29:main.c        **** CY_ISR_PROTO(ISR_I2C_MASTER_rx_handler); 
  30:main.c        **** void slaveBytesRecieve(uint8_t rec);  
ARM GAS  C:\Users\andre\AppData\Local\Temp\ccJryVGe.s 			page 2


  31:main.c        **** void uart_out_func(uint8_t rec); 
  32:main.c        **** 
  33:main.c        **** int main(void){
  34:main.c        ****     /* Initiering af diverse funktioner, pins, SPI, I2C, UART */
  35:main.c        ****     CyGlobalIntEnable; //Enable global interrupts. 
  36:main.c        ****     SPIS_1_Start(); //Enable SPI
  37:main.c        ****     SPIS_1_FIFO_CLR;
  38:main.c        ****     ISR_SLAVE_RX_StartEx(ISR_SPIS_rx_handler); //enable SPI interrupt
  39:main.c        ****     UART_rx_StartEx(ISR_UART_rx_handler); //Enable Uart (for test purposes)
  40:main.c        ****     UART_1_Start(); //Enable Uart (for test purposes)
  41:main.c        ****     I2C_Master_Start(); //Enable I2C for Sonar module
  42:main.c        ****     stepper_init(); //Initiering af stepper motor
  43:main.c        ****     init_motorFunktioner(); //motorfunktioner initiering
  44:main.c        ****     /* Initiering slut */ 
  45:main.c        ****   
  46:main.c        ****     for(;;){
  47:main.c        ****         //sendData();
  48:main.c        ****         slaveBytesRecieve(slave_bytesRecieved); //spi
  49:main.c        ****         //uart_out_func(uart_out); //uart (for testing)
  50:main.c        ****     }
  51:main.c        **** }
  52:main.c        **** //SPI interrupt 
  53:main.c        **** CY_ISR(ISR_SPIS_rx_handler){
  28              		.loc 1 53 0
  29              		.cfi_startproc
  30              		@ args = 0, pretend = 0, frame = 128
  31              		@ frame_needed = 0, uses_anonymous_args = 0
  32 0000 00B5     		push	{lr}
  33              		.cfi_def_cfa_offset 4
  34              		.cfi_offset 14, -4
  35 0002 A1B0     		sub	sp, sp, #132
  36              		.cfi_def_cfa_offset 136
  54:main.c        ****         slave_bytesRecieved = SPIS_1_ReadRxData(); //Læser dataen fra SPIS rx
  37              		.loc 1 54 0
  38 0004 FFF7FEFF 		bl	SPIS_1_ReadRxData
  39              	.LVL0:
  40 0008 0346     		mov	r3, r0
  41 000a 0B4A     		ldr	r2, .L3
  42 000c 1070     		strb	r0, [r2]
  55:main.c        ****         char buff[128];
  56:main.c        ****         snprintf(buff,sizeof(buff),"Byte received: %d\n",slave_bytesRecieved); //Formaterer data fr
  43              		.loc 1 56 0
  44 000e 0B4A     		ldr	r2, .L3+4
  45 0010 8021     		movs	r1, #128
  46 0012 6846     		mov	r0, sp
  47 0014 FFF7FEFF 		bl	snprintf
  48              	.LVL1:
  57:main.c        ****         UART_1_PutString(buff); //Skriver dataen ud på UART
  49              		.loc 1 57 0
  50 0018 6846     		mov	r0, sp
  51 001a FFF7FEFF 		bl	UART_1_PutString
  52              	.LVL2:
  58:main.c        **** 
  59:main.c        ****         uint8_t num = 75;
  60:main.c        ****         SPIS_1_WriteTxData(num);
  53              		.loc 1 60 0
  54 001e 4B20     		movs	r0, #75
ARM GAS  C:\Users\andre\AppData\Local\Temp\ccJryVGe.s 			page 3


  55 0020 FFF7FEFF 		bl	SPIS_1_WriteTxData
  56              	.LVL3:
  61:main.c        ****         SPIS_1_ClearFIFO();
  57              		.loc 1 61 0
  58 0024 FFF7FEFF 		bl	SPIS_1_ClearFIFO
  59              	.LVL4:
  62:main.c        ****         //SPIS_1_ClearRxBuffer();
  63:main.c        ****         
  64:main.c        ****         CyDelay(300);
  60              		.loc 1 64 0
  61 0028 4FF49670 		mov	r0, #300
  62 002c FFF7FEFF 		bl	CyDelay
  63              	.LVL5:
  65:main.c        **** }
  64              		.loc 1 65 0
  65 0030 21B0     		add	sp, sp, #132
  66              		.cfi_def_cfa_offset 4
  67              		@ sp needed
  68 0032 5DF804FB 		ldr	pc, [sp], #4
  69              	.L4:
  70 0036 00BF     		.align	2
  71              	.L3:
  72 0038 00000000 		.word	slave_bytesRecieved
  73 003c 00000000 		.word	.LC0
  74              		.cfi_endproc
  75              	.LFE65:
  76              		.size	ISR_SPIS_rx_handler, .-ISR_SPIS_rx_handler
  77              		.section	.text.ISR_UART_rx_handler,"ax",%progbits
  78              		.align	2
  79              		.global	ISR_UART_rx_handler
  80              		.thumb
  81              		.thumb_func
  82              		.type	ISR_UART_rx_handler, %function
  83              	ISR_UART_rx_handler:
  84              	.LFB67:
  66:main.c        **** //I2C interrupt
  67:main.c        **** CY_ISR(ISR_I2C_Master_rx_handler){
  68:main.c        ****     sendData();  
  69:main.c        **** }
  70:main.c        **** 
  71:main.c        **** //UART interrupt (for testing only) 
  72:main.c        **** CY_ISR(ISR_UART_rx_handler){
  85              		.loc 1 72 0
  86              		.cfi_startproc
  87              		@ args = 0, pretend = 0, frame = 0
  88              		@ frame_needed = 0, uses_anonymous_args = 0
  89 0000 10B5     		push	{r4, lr}
  90              		.cfi_def_cfa_offset 8
  91              		.cfi_offset 4, -8
  92              		.cfi_offset 14, -4
  73:main.c        ****     uint8_t bytesToRead = UART_1_GetRxBufferSize();
  93              		.loc 1 73 0
  94 0002 FFF7FEFF 		bl	UART_1_GetRxBufferSize
  95              	.LVL6:
  96 0006 0446     		mov	r4, r0
  97              	.LVL7:
  74:main.c        ****     while (bytesToRead > 0)
ARM GAS  C:\Users\andre\AppData\Local\Temp\ccJryVGe.s 			page 4


  98              		.loc 1 74 0
  99 0008 07E0     		b	.L6
 100              	.L7:
  75:main.c        ****     {
  76:main.c        ****         uart_out = UART_1_ReadRxData();
 101              		.loc 1 76 0
 102 000a FFF7FEFF 		bl	UART_1_ReadRxData
 103              	.LVL8:
 104 000e 044B     		ldr	r3, .L9
 105 0010 1870     		strb	r0, [r3]
  77:main.c        ****         UART_1_WriteTxData(uart_out); // echo back
 106              		.loc 1 77 0
 107 0012 FFF7FEFF 		bl	UART_1_WriteTxData
 108              	.LVL9:
  78:main.c        ****         
  79:main.c        ****         bytesToRead--;
 109              		.loc 1 79 0
 110 0016 013C     		subs	r4, r4, #1
 111              	.LVL10:
 112 0018 E4B2     		uxtb	r4, r4
 113              	.LVL11:
 114              	.L6:
  74:main.c        ****     {
 115              		.loc 1 74 0
 116 001a 002C     		cmp	r4, #0
 117 001c F5D1     		bne	.L7
  80:main.c        ****          
  81:main.c        ****     }
  82:main.c        **** }
 118              		.loc 1 82 0
 119 001e 10BD     		pop	{r4, pc}
 120              	.LVL12:
 121              	.L10:
 122              		.align	2
 123              	.L9:
 124 0020 00000000 		.word	uart_out
 125              		.cfi_endproc
 126              	.LFE67:
 127              		.size	ISR_UART_rx_handler, .-ISR_UART_rx_handler
 128              		.section	.text.ISR_I2C_Master_rx_handler,"ax",%progbits
 129              		.align	2
 130              		.global	ISR_I2C_Master_rx_handler
 131              		.thumb
 132              		.thumb_func
 133              		.type	ISR_I2C_Master_rx_handler, %function
 134              	ISR_I2C_Master_rx_handler:
 135              	.LFB66:
  67:main.c        ****     sendData();  
 136              		.loc 1 67 0
 137              		.cfi_startproc
 138              		@ args = 0, pretend = 0, frame = 0
 139              		@ frame_needed = 0, uses_anonymous_args = 0
 140 0000 08B5     		push	{r3, lr}
 141              		.cfi_def_cfa_offset 8
 142              		.cfi_offset 3, -8
 143              		.cfi_offset 14, -4
  68:main.c        **** }
ARM GAS  C:\Users\andre\AppData\Local\Temp\ccJryVGe.s 			page 5


 144              		.loc 1 68 0
 145 0002 FFF7FEFF 		bl	sendData
 146              	.LVL13:
 147 0006 08BD     		pop	{r3, pc}
 148              		.cfi_endproc
 149              	.LFE66:
 150              		.size	ISR_I2C_Master_rx_handler, .-ISR_I2C_Master_rx_handler
 151              		.section	.text.slaveBytesRecieve,"ax",%progbits
 152              		.align	2
 153              		.global	slaveBytesRecieve
 154              		.thumb
 155              		.thumb_func
 156              		.type	slaveBytesRecieve, %function
 157              	slaveBytesRecieve:
 158              	.LFB68:
  83:main.c        **** //Switch case for spi 
  84:main.c        **** void slaveBytesRecieve(uint8_t rec){
 159              		.loc 1 84 0
 160              		.cfi_startproc
 161              		@ args = 0, pretend = 0, frame = 0
 162              		@ frame_needed = 0, uses_anonymous_args = 0
 163              	.LVL14:
 164 0000 08B5     		push	{r3, lr}
 165              		.cfi_def_cfa_offset 8
 166              		.cfi_offset 3, -8
 167              		.cfi_offset 14, -4
  85:main.c        ****     switch(rec){ 
 168              		.loc 1 85 0
 169 0002 0138     		subs	r0, r0, #1
 170              	.LVL15:
 171 0004 0928     		cmp	r0, #9
 172 0006 41D8     		bhi	.L13
 173 0008 DFE800F0 		tbb	[pc, r0]
 174              	.L16:
 175 000c 05       		.byte	(.L15-.L16)/2
 176 000d 0E       		.byte	(.L17-.L16)/2
 177 000e 17       		.byte	(.L18-.L16)/2
 178 000f 30       		.byte	(.L19-.L16)/2
 179 0010 28       		.byte	(.L20-.L16)/2
 180 0011 20       		.byte	(.L21-.L16)/2
 181 0012 33       		.byte	(.L22-.L16)/2
 182 0013 36       		.byte	(.L23-.L16)/2
 183 0014 3A       		.byte	(.L24-.L16)/2
 184 0015 3E       		.byte	(.L25-.L16)/2
 185              		.p2align 1
 186              	.L15:
  86:main.c        ****         case searchBall_: 
  87:main.c        ****         {
  88:main.c        ****             searchBall(calL, calR, PWML, PWMR);   
 187              		.loc 1 88 0
 188 0016 1E4A     		ldr	r2, .L27
 189 0018 1E48     		ldr	r0, .L27+4
 190 001a 1368     		ldr	r3, [r2]
 191 001c 5268     		ldr	r2, [r2, #4]
 192 001e 0168     		ldr	r1, [r0]
 193 0020 4068     		ldr	r0, [r0, #4]
 194 0022 FFF7FEFF 		bl	searchBall
ARM GAS  C:\Users\andre\AppData\Local\Temp\ccJryVGe.s 			page 6


 195              	.LVL16:
  89:main.c        ****         }
  90:main.c        ****         break; 
 196              		.loc 1 90 0
 197 0026 08BD     		pop	{r3, pc}
 198              	.L17:
  91:main.c        ****         case forwards:
  92:main.c        ****         {
  93:main.c        ****             korFrem(10, calR, PWML, PWMR);
 199              		.loc 1 93 0
 200 0028 194A     		ldr	r2, .L27
 201 002a 1368     		ldr	r3, [r2]
 202 002c 5268     		ldr	r2, [r2, #4]
 203 002e 1949     		ldr	r1, .L27+4
 204 0030 0968     		ldr	r1, [r1]
 205 0032 0A20     		movs	r0, #10
 206 0034 FFF7FEFF 		bl	korFrem
 207              	.LVL17:
  94:main.c        ****         }
  95:main.c        ****         break;
 208              		.loc 1 95 0
 209 0038 08BD     		pop	{r3, pc}
 210              	.L18:
  96:main.c        ****         case backwards:
  97:main.c        ****         {
  98:main.c        ****             korTilbage(calL, calR, PWML, PWMR);
 211              		.loc 1 98 0
 212 003a 154A     		ldr	r2, .L27
 213 003c 1548     		ldr	r0, .L27+4
 214 003e 1368     		ldr	r3, [r2]
 215 0040 5268     		ldr	r2, [r2, #4]
 216 0042 0168     		ldr	r1, [r0]
 217 0044 4068     		ldr	r0, [r0, #4]
 218 0046 FFF7FEFF 		bl	korTilbage
 219              	.LVL18:
  99:main.c        ****         }
 100:main.c        ****         break;
 220              		.loc 1 100 0
 221 004a 08BD     		pop	{r3, pc}
 222              	.L21:
 101:main.c        ****         case turn_left:
 102:main.c        ****         {
 103:main.c        ****             drejVenstre(calL, calR, 0, 170);  
 223              		.loc 1 103 0
 224 004c 1148     		ldr	r0, .L27+4
 225 004e AA23     		movs	r3, #170
 226 0050 0022     		movs	r2, #0
 227 0052 0168     		ldr	r1, [r0]
 228 0054 4068     		ldr	r0, [r0, #4]
 229 0056 FFF7FEFF 		bl	drejVenstre
 230              	.LVL19:
 104:main.c        ****         }
 105:main.c        ****         break;
 231              		.loc 1 105 0
 232 005a 08BD     		pop	{r3, pc}
 233              	.L20:
 106:main.c        ****         case turn_right:
ARM GAS  C:\Users\andre\AppData\Local\Temp\ccJryVGe.s 			page 7


 107:main.c        ****         {
 108:main.c        ****             drejHojre(calL, calR, 170, 0); 
 234              		.loc 1 108 0
 235 005c 0D48     		ldr	r0, .L27+4
 236 005e 0023     		movs	r3, #0
 237 0060 AA22     		movs	r2, #170
 238 0062 0168     		ldr	r1, [r0]
 239 0064 4068     		ldr	r0, [r0, #4]
 240 0066 FFF7FEFF 		bl	drejHojre
 241              	.LVL20:
 109:main.c        ****         }
 110:main.c        ****         break;
 242              		.loc 1 110 0
 243 006a 08BD     		pop	{r3, pc}
 244              	.L19:
 111:main.c        ****         case stop_:
 112:main.c        ****         {
 113:main.c        ****             stop();
 245              		.loc 1 113 0
 246 006c FFF7FEFF 		bl	stop
 247              	.LVL21:
 114:main.c        ****         }
 115:main.c        ****         break;
 248              		.loc 1 115 0
 249 0070 08BD     		pop	{r3, pc}
 250              	.L22:
 116:main.c        ****         case stop_f:
 117:main.c        ****         {
 118:main.c        ****             fastStop();
 251              		.loc 1 118 0
 252 0072 FFF7FEFF 		bl	fastStop
 253              	.LVL22:
 119:main.c        ****         }
 120:main.c        ****         break;
 254              		.loc 1 120 0
 255 0076 08BD     		pop	{r3, pc}
 256              	.L23:
 121:main.c        ****         case pickup_down: 
 122:main.c        ****         {
 123:main.c        ****    
 124:main.c        ****             stepper_down(12); 
 257              		.loc 1 124 0
 258 0078 0C20     		movs	r0, #12
 259 007a FFF7FEFF 		bl	stepper_down
 260              	.LVL23:
 125:main.c        ****         }
 126:main.c        ****         break;
 261              		.loc 1 126 0
 262 007e 08BD     		pop	{r3, pc}
 263              	.L24:
 127:main.c        ****          case pickup_up: 
 128:main.c        ****         {
 129:main.c        ****             stepper_up(12); 
 264              		.loc 1 129 0
 265 0080 0C20     		movs	r0, #12
 266 0082 FFF7FEFF 		bl	stepper_up
 267              	.LVL24:
ARM GAS  C:\Users\andre\AppData\Local\Temp\ccJryVGe.s 			page 8


 130:main.c        ****         }
 131:main.c        ****         break;
 268              		.loc 1 131 0
 269 0086 08BD     		pop	{r3, pc}
 270              	.L25:
 132:main.c        ****          case pickup_stop: 
 133:main.c        ****         {
 134:main.c        ****             stepper_stop(); 
 271              		.loc 1 134 0
 272 0088 FFF7FEFF 		bl	stepper_stop
 273              	.LVL25:
 274              	.L13:
 275 008c 08BD     		pop	{r3, pc}
 276              	.L28:
 277 008e 00BF     		.align	2
 278              	.L27:
 279 0090 00000000 		.word	.LANCHOR0
 280 0094 00000000 		.word	.LANCHOR1
 281              		.cfi_endproc
 282              	.LFE68:
 283              		.size	slaveBytesRecieve, .-slaveBytesRecieve
 284              		.section	.text.main,"ax",%progbits
 285              		.align	2
 286              		.global	main
 287              		.thumb
 288              		.thumb_func
 289              		.type	main, %function
 290              	main:
 291              	.LFB64:
  33:main.c        ****     /* Initiering af diverse funktioner, pins, SPI, I2C, UART */
 292              		.loc 1 33 0
 293              		.cfi_startproc
 294              		@ Volatile: function does not return.
 295              		@ args = 0, pretend = 0, frame = 0
 296              		@ frame_needed = 0, uses_anonymous_args = 0
 297 0000 08B5     		push	{r3, lr}
 298              		.cfi_def_cfa_offset 8
 299              		.cfi_offset 3, -8
 300              		.cfi_offset 14, -4
  35:main.c        ****     SPIS_1_Start(); //Enable SPI
 301              		.loc 1 35 0
 302              		.syntax unified
 303              	@ 35 "main.c" 1
 304 0002 62B6     		CPSIE   i
 305              	@ 0 "" 2
  36:main.c        ****     SPIS_1_FIFO_CLR;
 306              		.loc 1 36 0
 307              		.thumb
 308              		.syntax unified
 309 0004 FFF7FEFF 		bl	SPIS_1_Start
 310              	.LVL26:
  38:main.c        ****     UART_rx_StartEx(ISR_UART_rx_handler); //Enable Uart (for test purposes)
 311              		.loc 1 38 0
 312 0008 0948     		ldr	r0, .L32
 313 000a FFF7FEFF 		bl	ISR_SLAVE_RX_StartEx
 314              	.LVL27:
  39:main.c        ****     UART_1_Start(); //Enable Uart (for test purposes)
ARM GAS  C:\Users\andre\AppData\Local\Temp\ccJryVGe.s 			page 9


 315              		.loc 1 39 0
 316 000e 0948     		ldr	r0, .L32+4
 317 0010 FFF7FEFF 		bl	UART_rx_StartEx
 318              	.LVL28:
  40:main.c        ****     I2C_Master_Start(); //Enable I2C for Sonar module
 319              		.loc 1 40 0
 320 0014 FFF7FEFF 		bl	UART_1_Start
 321              	.LVL29:
  41:main.c        ****     stepper_init(); //Initiering af stepper motor
 322              		.loc 1 41 0
 323 0018 FFF7FEFF 		bl	I2C_Master_Start
 324              	.LVL30:
  42:main.c        ****     init_motorFunktioner(); //motorfunktioner initiering
 325              		.loc 1 42 0
 326 001c FFF7FEFF 		bl	stepper_init
 327              	.LVL31:
  43:main.c        ****     /* Initiering slut */ 
 328              		.loc 1 43 0
 329 0020 FFF7FEFF 		bl	init_motorFunktioner
 330              	.LVL32:
 331              	.L30:
  48:main.c        ****         //uart_out_func(uart_out); //uart (for testing)
 332              		.loc 1 48 0 discriminator 1
 333 0024 044B     		ldr	r3, .L32+8
 334 0026 1878     		ldrb	r0, [r3]	@ zero_extendqisi2
 335 0028 FFF7FEFF 		bl	slaveBytesRecieve
 336              	.LVL33:
 337 002c FAE7     		b	.L30
 338              	.L33:
 339 002e 00BF     		.align	2
 340              	.L32:
 341 0030 00000000 		.word	ISR_SPIS_rx_handler
 342 0034 00000000 		.word	ISR_UART_rx_handler
 343 0038 00000000 		.word	slave_bytesRecieved
 344              		.cfi_endproc
 345              	.LFE64:
 346              		.size	main, .-main
 347              		.section	.text.uart_out_func,"ax",%progbits
 348              		.align	2
 349              		.global	uart_out_func
 350              		.thumb
 351              		.thumb_func
 352              		.type	uart_out_func, %function
 353              	uart_out_func:
 354              	.LFB69:
 135:main.c        ****           
 136:main.c        ****         }
 137:main.c        ****         break;
 138:main.c        ****         default: 
 139:main.c        ****         {}
 140:main.c        ****         break; 
 141:main.c        ****     }
 142:main.c        **** }
 143:main.c        **** 
 144:main.c        **** //switch case for uart (only for testing) 
 145:main.c        **** void uart_out_func(uint8_t rec){
 355              		.loc 1 145 0
ARM GAS  C:\Users\andre\AppData\Local\Temp\ccJryVGe.s 			page 10


 356              		.cfi_startproc
 357              		@ args = 0, pretend = 0, frame = 0
 358              		@ frame_needed = 0, uses_anonymous_args = 0
 359              	.LVL34:
 360 0000 08B5     		push	{r3, lr}
 361              		.cfi_def_cfa_offset 8
 362              		.cfi_offset 3, -8
 363              		.cfi_offset 14, -4
 146:main.c        ****     switch(rec){ 
 364              		.loc 1 146 0
 365 0002 3138     		subs	r0, r0, #49
 366              	.LVL35:
 367 0004 3028     		cmp	r0, #48
 368 0006 55D8     		bhi	.L34
 369 0008 DFE800F0 		tbb	[pc, r0]
 370              	.L37:
 371 000c 19       		.byte	(.L36-.L37)/2
 372 000d 22       		.byte	(.L38-.L37)/2
 373 000e 2B       		.byte	(.L39-.L37)/2
 374 000f 34       		.byte	(.L40-.L37)/2
 375 0010 37       		.byte	(.L41-.L37)/2
 376 0011 3F       		.byte	(.L42-.L37)/2
 377 0012 47       		.byte	(.L43-.L37)/2
 378 0013 4A       		.byte	(.L44-.L37)/2
 379 0014 4E       		.byte	(.L45-.L37)/2
 380 0015 54       		.byte	(.L34-.L37)/2
 381 0016 54       		.byte	(.L34-.L37)/2
 382 0017 54       		.byte	(.L34-.L37)/2
 383 0018 54       		.byte	(.L34-.L37)/2
 384 0019 54       		.byte	(.L34-.L37)/2
 385 001a 54       		.byte	(.L34-.L37)/2
 386 001b 54       		.byte	(.L34-.L37)/2
 387 001c 54       		.byte	(.L34-.L37)/2
 388 001d 54       		.byte	(.L34-.L37)/2
 389 001e 54       		.byte	(.L34-.L37)/2
 390 001f 54       		.byte	(.L34-.L37)/2
 391 0020 54       		.byte	(.L34-.L37)/2
 392 0021 54       		.byte	(.L34-.L37)/2
 393 0022 54       		.byte	(.L34-.L37)/2
 394 0023 54       		.byte	(.L34-.L37)/2
 395 0024 54       		.byte	(.L34-.L37)/2
 396 0025 54       		.byte	(.L34-.L37)/2
 397 0026 54       		.byte	(.L34-.L37)/2
 398 0027 54       		.byte	(.L34-.L37)/2
 399 0028 54       		.byte	(.L34-.L37)/2
 400 0029 54       		.byte	(.L34-.L37)/2
 401 002a 54       		.byte	(.L34-.L37)/2
 402 002b 54       		.byte	(.L34-.L37)/2
 403 002c 54       		.byte	(.L34-.L37)/2
 404 002d 54       		.byte	(.L34-.L37)/2
 405 002e 54       		.byte	(.L34-.L37)/2
 406 002f 54       		.byte	(.L34-.L37)/2
 407 0030 54       		.byte	(.L34-.L37)/2
 408 0031 54       		.byte	(.L34-.L37)/2
 409 0032 54       		.byte	(.L34-.L37)/2
 410 0033 54       		.byte	(.L34-.L37)/2
 411 0034 54       		.byte	(.L34-.L37)/2
ARM GAS  C:\Users\andre\AppData\Local\Temp\ccJryVGe.s 			page 11


 412 0035 54       		.byte	(.L34-.L37)/2
 413 0036 54       		.byte	(.L34-.L37)/2
 414 0037 54       		.byte	(.L34-.L37)/2
 415 0038 54       		.byte	(.L34-.L37)/2
 416 0039 54       		.byte	(.L34-.L37)/2
 417 003a 54       		.byte	(.L34-.L37)/2
 418 003b 54       		.byte	(.L34-.L37)/2
 419 003c 52       		.byte	(.L46-.L37)/2
 420 003d 00       		.p2align 1
 421              	.L36:
 147:main.c        ****         case '1': 
 148:main.c        ****             {
 149:main.c        ****                searchBall(calL, calR, PWML, PWMR);  
 422              		.loc 1 149 0
 423 003e 1E4A     		ldr	r2, .L48
 424 0040 1E48     		ldr	r0, .L48+4
 425 0042 1368     		ldr	r3, [r2]
 426 0044 5268     		ldr	r2, [r2, #4]
 427 0046 0168     		ldr	r1, [r0]
 428 0048 4068     		ldr	r0, [r0, #4]
 429 004a FFF7FEFF 		bl	searchBall
 430              	.LVL36:
 150:main.c        ****             }
 151:main.c        ****             break; 
 431              		.loc 1 151 0
 432 004e 08BD     		pop	{r3, pc}
 433              	.L38:
 152:main.c        ****         case '2': 
 153:main.c        ****             {
 154:main.c        ****                korFrem(calL, calR, PWML, PWMR); 
 434              		.loc 1 154 0
 435 0050 194A     		ldr	r2, .L48
 436 0052 1A48     		ldr	r0, .L48+4
 437 0054 1368     		ldr	r3, [r2]
 438 0056 5268     		ldr	r2, [r2, #4]
 439 0058 0168     		ldr	r1, [r0]
 440 005a 4068     		ldr	r0, [r0, #4]
 441 005c FFF7FEFF 		bl	korFrem
 442              	.LVL37:
 155:main.c        ****             }
 156:main.c        ****             break;
 443              		.loc 1 156 0
 444 0060 08BD     		pop	{r3, pc}
 445              	.L39:
 157:main.c        ****         case '3': 
 158:main.c        ****             {
 159:main.c        ****                korTilbage(calL, calR, PWML, PWMR);  
 446              		.loc 1 159 0
 447 0062 154A     		ldr	r2, .L48
 448 0064 1548     		ldr	r0, .L48+4
 449 0066 1368     		ldr	r3, [r2]
 450 0068 5268     		ldr	r2, [r2, #4]
 451 006a 0168     		ldr	r1, [r0]
 452 006c 4068     		ldr	r0, [r0, #4]
 453 006e FFF7FEFF 		bl	korTilbage
 454              	.LVL38:
 160:main.c        ****             }
ARM GAS  C:\Users\andre\AppData\Local\Temp\ccJryVGe.s 			page 12


 161:main.c        ****             break;
 455              		.loc 1 161 0
 456 0072 08BD     		pop	{r3, pc}
 457              	.L40:
 162:main.c        ****         case '4': 
 163:main.c        ****             {
 164:main.c        ****                stop();  
 458              		.loc 1 164 0
 459 0074 FFF7FEFF 		bl	stop
 460              	.LVL39:
 165:main.c        ****             }
 166:main.c        ****             break;
 461              		.loc 1 166 0
 462 0078 08BD     		pop	{r3, pc}
 463              	.L41:
 167:main.c        ****         case '5': 
 168:main.c        ****             {
 169:main.c        ****                drejHojre(calL, calR, 175, 0);  
 464              		.loc 1 169 0
 465 007a 1048     		ldr	r0, .L48+4
 466 007c 0023     		movs	r3, #0
 467 007e AF22     		movs	r2, #175
 468 0080 0168     		ldr	r1, [r0]
 469 0082 4068     		ldr	r0, [r0, #4]
 470 0084 FFF7FEFF 		bl	drejHojre
 471              	.LVL40:
 170:main.c        ****             }
 171:main.c        ****             break;
 472              		.loc 1 171 0
 473 0088 08BD     		pop	{r3, pc}
 474              	.L42:
 172:main.c        ****          case '6': 
 173:main.c        ****             {
 174:main.c        ****                drejVenstre(calL, calR, 0, 170); 
 475              		.loc 1 174 0
 476 008a 0C48     		ldr	r0, .L48+4
 477 008c AA23     		movs	r3, #170
 478 008e 0022     		movs	r2, #0
 479 0090 0168     		ldr	r1, [r0]
 480 0092 4068     		ldr	r0, [r0, #4]
 481 0094 FFF7FEFF 		bl	drejVenstre
 482              	.LVL41:
 175:main.c        ****             }
 176:main.c        ****             break;
 483              		.loc 1 176 0
 484 0098 08BD     		pop	{r3, pc}
 485              	.L43:
 177:main.c        ****         case '7': 
 178:main.c        ****             {
 179:main.c        ****                fastStop();  
 486              		.loc 1 179 0
 487 009a FFF7FEFF 		bl	fastStop
 488              	.LVL42:
 180:main.c        ****             }
 181:main.c        ****             break;
 489              		.loc 1 181 0
 490 009e 08BD     		pop	{r3, pc}
ARM GAS  C:\Users\andre\AppData\Local\Temp\ccJryVGe.s 			page 13


 491              	.L44:
 182:main.c        ****         case '8': 
 183:main.c        ****             {
 184:main.c        ****                stepper_down(12); 
 492              		.loc 1 184 0
 493 00a0 0C20     		movs	r0, #12
 494 00a2 FFF7FEFF 		bl	stepper_down
 495              	.LVL43:
 185:main.c        ****             }
 186:main.c        ****             break;
 496              		.loc 1 186 0
 497 00a6 08BD     		pop	{r3, pc}
 498              	.L45:
 187:main.c        ****         case '9': 
 188:main.c        ****             {
 189:main.c        ****                stepper_up(12); 
 499              		.loc 1 189 0
 500 00a8 0C20     		movs	r0, #12
 501 00aa FFF7FEFF 		bl	stepper_up
 502              	.LVL44:
 190:main.c        ****             }
 191:main.c        ****             break;
 503              		.loc 1 191 0
 504 00ae 08BD     		pop	{r3, pc}
 505              	.L46:
 192:main.c        ****              case 'a': 
 193:main.c        ****             {
 194:main.c        ****                stepper_stop(); 
 506              		.loc 1 194 0
 507 00b0 FFF7FEFF 		bl	stepper_stop
 508              	.LVL45:
 509              	.L34:
 510 00b4 08BD     		pop	{r3, pc}
 511              	.L49:
 512 00b6 00BF     		.align	2
 513              	.L48:
 514 00b8 00000000 		.word	.LANCHOR0
 515 00bc 00000000 		.word	.LANCHOR1
 516              		.cfi_endproc
 517              	.LFE69:
 518              		.size	uart_out_func, .-uart_out_func
 519              		.comm	uart_out,1,1
 520              		.global	PWMR
 521              		.global	PWML
 522              		.global	calL
 523              		.global	calR
 524              		.comm	slave_bytesRecieved,1,1
 525              		.data
 526              		.align	2
 527              		.set	.LANCHOR0,. + 0
 528              		.type	PWMR, %object
 529              		.size	PWMR, 4
 530              	PWMR:
 531 0000 A5000000 		.word	165
 532              		.type	PWML, %object
 533              		.size	PWML, 4
 534              	PWML:
ARM GAS  C:\Users\andre\AppData\Local\Temp\ccJryVGe.s 			page 14


 535 0004 A5000000 		.word	165
 536              		.section	.rodata.str1.4,"aMS",%progbits,1
 537              		.align	2
 538              	.LC0:
 539 0000 42797465 		.ascii	"Byte received: %d\012\000"
 539      20726563 
 539      65697665 
 539      643A2025 
 539      640A00
 540              		.bss
 541              		.align	2
 542              		.set	.LANCHOR1,. + 0
 543              		.type	calR, %object
 544              		.size	calR, 4
 545              	calR:
 546 0000 00000000 		.space	4
 547              		.type	calL, %object
 548              		.size	calL, 4
 549              	calL:
 550 0004 00000000 		.space	4
 551              		.text
 552              	.Letext0:
 553              		.file 2 "c:\\program files (x86)\\cypress\\psoc creator\\4.2\\psoc creator\\import\\gnu\\arm\\5.4.
 554              		.file 3 "c:\\program files (x86)\\cypress\\psoc creator\\4.2\\psoc creator\\import\\gnu\\arm\\5.4.
 555              		.file 4 "Generated_Source\\PSoC5/core_cm3.h"
 556              		.file 5 "Generated_Source\\PSoC5/SPIS_1.h"
 557              		.file 6 "c:\\program files (x86)\\cypress\\psoc creator\\4.2\\psoc creator\\import\\gnu\\arm\\5.4.
 558              		.file 7 "Generated_Source\\PSoC5/UART_1.h"
 559              		.file 8 "Generated_Source\\PSoC5/CyLib.h"
 560              		.file 9 "sonarSensor.h"
 561              		.file 10 "motorStyring.h"
 562              		.file 11 "opsamlerStyring.h"
 563              		.file 12 "Generated_Source\\PSoC5/ISR_SLAVE_RX.h"
 564              		.file 13 "Generated_Source\\PSoC5/UART_rx.h"
 565              		.file 14 "Generated_Source\\PSoC5/I2C_Master.h"