ARM GAS  C:\Users\andre\AppData\Local\Temp\ccYcWgmZ.s 			page 1


   1              		.syntax unified
   2              		.cpu cortex-m3
   3              		.fpu softvfp
   4              		.eabi_attribute 20, 1
   5              		.eabi_attribute 21, 1
   6              		.eabi_attribute 23, 3
   7              		.eabi_attribute 24, 1
   8              		.eabi_attribute 25, 1
   9              		.eabi_attribute 26, 1
  10              		.eabi_attribute 30, 1
  11              		.eabi_attribute 34, 1
  12              		.eabi_attribute 18, 4
  13              		.thumb
  14              		.syntax unified
  15              		.file	"motorFunktioner.c"
  16              		.text
  17              	.Ltext0:
  18              		.cfi_sections	.debug_frame
  19              		.section	.text.init_motorFunktioner,"ax",%progbits
  20              		.align	2
  21              		.global	init_motorFunktioner
  22              		.thumb
  23              		.thumb_func
  24              		.type	init_motorFunktioner, %function
  25              	init_motorFunktioner:
  26              	.LFB63:
  27              		.file 1 "motorFunktioner.c"
   1:motorFunktioner.c **** #include "motorStyring.h" 
   2:motorFunktioner.c **** void init_motorFunktioner() 
   3:motorFunktioner.c **** {
  28              		.loc 1 3 0
  29              		.cfi_startproc
  30              		@ args = 0, pretend = 0, frame = 0
  31              		@ frame_needed = 0, uses_anonymous_args = 0
  32 0000 08B5     		push	{r3, lr}
  33              		.cfi_def_cfa_offset 8
  34              		.cfi_offset 3, -8
  35              		.cfi_offset 14, -4
   4:motorFunktioner.c ****     Motorpwm_Left_Init();
  36              		.loc 1 4 0
  37 0002 FFF7FEFF 		bl	Motorpwm_Left_Init
  38              	.LVL0:
   5:motorFunktioner.c ****     Motorpwm_right_Init();
  39              		.loc 1 5 0
  40 0006 FFF7FEFF 		bl	Motorpwm_right_Init
  41              	.LVL1:
   6:motorFunktioner.c ****     Motorpwm_right_Start();
  42              		.loc 1 6 0
  43 000a FFF7FEFF 		bl	Motorpwm_right_Start
  44              	.LVL2:
   7:motorFunktioner.c ****     Motorpwm_Left_Start();
  45              		.loc 1 7 0
  46 000e FFF7FEFF 		bl	Motorpwm_Left_Start
  47              	.LVL3:
   8:motorFunktioner.c ****     ADC_calL_Init();
  48              		.loc 1 8 0
  49 0012 FFF7FEFF 		bl	ADC_calL_Init
ARM GAS  C:\Users\andre\AppData\Local\Temp\ccYcWgmZ.s 			page 2


  50              	.LVL4:
   9:motorFunktioner.c ****     ADC_calR_Init();
  51              		.loc 1 9 0
  52 0016 FFF7FEFF 		bl	ADC_calR_Init
  53              	.LVL5:
  10:motorFunktioner.c ****     ADC_calL_Start();
  54              		.loc 1 10 0
  55 001a FFF7FEFF 		bl	ADC_calL_Start
  56              	.LVL6:
  11:motorFunktioner.c ****     ADC_calR_Start();
  57              		.loc 1 11 0
  58 001e FFF7FEFF 		bl	ADC_calR_Start
  59              	.LVL7:
  12:motorFunktioner.c ****     ADC_calL_StartConvert();
  60              		.loc 1 12 0
  61 0022 FFF7FEFF 		bl	ADC_calL_StartConvert
  62              	.LVL8:
  13:motorFunktioner.c ****     ADC_calR_StartConvert();
  63              		.loc 1 13 0
  64 0026 FFF7FEFF 		bl	ADC_calR_StartConvert
  65              	.LVL9:
  66 002a 08BD     		pop	{r3, pc}
  67              		.cfi_endproc
  68              	.LFE63:
  69              		.size	init_motorFunktioner, .-init_motorFunktioner
  70              		.section	.text.searchBall,"ax",%progbits
  71              		.align	2
  72              		.global	searchBall
  73              		.thumb
  74              		.thumb_func
  75              		.type	searchBall, %function
  76              	searchBall:
  77              	.LFB64:
  14:motorFunktioner.c **** }
  15:motorFunktioner.c **** 
  16:motorFunktioner.c **** void searchBall(int calL, int calR, int PWML, int PWMR)
  17:motorFunktioner.c **** {
  78              		.loc 1 17 0
  79              		.cfi_startproc
  80              		@ args = 0, pretend = 0, frame = 0
  81              		@ frame_needed = 0, uses_anonymous_args = 0
  82              	.LVL10:
  83 0000 F8B5     		push	{r3, r4, r5, r6, r7, lr}
  84              		.cfi_def_cfa_offset 24
  85              		.cfi_offset 3, -24
  86              		.cfi_offset 4, -20
  87              		.cfi_offset 5, -16
  88              		.cfi_offset 6, -12
  89              		.cfi_offset 7, -8
  90              		.cfi_offset 14, -4
  91 0002 0746     		mov	r7, r0
  92 0004 0E46     		mov	r6, r1
  93 0006 1546     		mov	r5, r2
  94 0008 1C46     		mov	r4, r3
  18:motorFunktioner.c ****     mode_Write(0b00001010);
  95              		.loc 1 18 0
  96 000a 0A20     		movs	r0, #10
ARM GAS  C:\Users\andre\AppData\Local\Temp\ccYcWgmZ.s 			page 3


  97              	.LVL11:
  98 000c FFF7FEFF 		bl	mode_Write
  99              	.LVL12:
  19:motorFunktioner.c ****     Motorpwm_Left_WriteCompare (calL + PWML);
 100              		.loc 1 19 0
 101 0010 7819     		adds	r0, r7, r5
 102 0012 C0B2     		uxtb	r0, r0
 103 0014 FFF7FEFF 		bl	Motorpwm_Left_WriteCompare
 104              	.LVL13:
  20:motorFunktioner.c ****     Motorpwm_right_WriteCompare(calR + PWMR);   
 105              		.loc 1 20 0
 106 0018 3019     		adds	r0, r6, r4
 107 001a C0B2     		uxtb	r0, r0
 108 001c FFF7FEFF 		bl	Motorpwm_right_WriteCompare
 109              	.LVL14:
 110 0020 F8BD     		pop	{r3, r4, r5, r6, r7, pc}
 111              		.cfi_endproc
 112              	.LFE64:
 113              		.size	searchBall, .-searchBall
 114 0022 00BF     		.section	.text.korFrem,"ax",%progbits
 115              		.align	2
 116              		.global	korFrem
 117              		.thumb
 118              		.thumb_func
 119              		.type	korFrem, %function
 120              	korFrem:
 121              	.LFB65:
  21:motorFunktioner.c **** }
  22:motorFunktioner.c **** 
  23:motorFunktioner.c **** void korFrem(int calL, int calR, int PWML, int PWMR) {
 122              		.loc 1 23 0
 123              		.cfi_startproc
 124              		@ args = 0, pretend = 0, frame = 0
 125              		@ frame_needed = 0, uses_anonymous_args = 0
 126              	.LVL15:
 127 0000 F8B5     		push	{r3, r4, r5, r6, r7, lr}
 128              		.cfi_def_cfa_offset 24
 129              		.cfi_offset 3, -24
 130              		.cfi_offset 4, -20
 131              		.cfi_offset 5, -16
 132              		.cfi_offset 6, -12
 133              		.cfi_offset 7, -8
 134              		.cfi_offset 14, -4
 135 0002 0746     		mov	r7, r0
 136 0004 0E46     		mov	r6, r1
 137 0006 1546     		mov	r5, r2
 138 0008 1C46     		mov	r4, r3
  24:motorFunktioner.c **** mode_Write(0b00001000);
 139              		.loc 1 24 0
 140 000a 0820     		movs	r0, #8
 141              	.LVL16:
 142 000c FFF7FEFF 		bl	mode_Write
 143              	.LVL17:
  25:motorFunktioner.c **** Motorpwm_Left_WriteCompare (calL + PWML);
 144              		.loc 1 25 0
 145 0010 7819     		adds	r0, r7, r5
 146 0012 C0B2     		uxtb	r0, r0
ARM GAS  C:\Users\andre\AppData\Local\Temp\ccYcWgmZ.s 			page 4


 147 0014 FFF7FEFF 		bl	Motorpwm_Left_WriteCompare
 148              	.LVL18:
  26:motorFunktioner.c **** Motorpwm_right_WriteCompare(calR + PWMR);
 149              		.loc 1 26 0
 150 0018 3019     		adds	r0, r6, r4
 151 001a C0B2     		uxtb	r0, r0
 152 001c FFF7FEFF 		bl	Motorpwm_right_WriteCompare
 153              	.LVL19:
 154 0020 F8BD     		pop	{r3, r4, r5, r6, r7, pc}
 155              		.cfi_endproc
 156              	.LFE65:
 157              		.size	korFrem, .-korFrem
 158 0022 00BF     		.section	.text.fastStop,"ax",%progbits
 159              		.align	2
 160              		.global	fastStop
 161              		.thumb
 162              		.thumb_func
 163              		.type	fastStop, %function
 164              	fastStop:
 165              	.LFB66:
  27:motorFunktioner.c **** }
  28:motorFunktioner.c **** 
  29:motorFunktioner.c **** void fastStop() {
 166              		.loc 1 29 0
 167              		.cfi_startproc
 168              		@ args = 0, pretend = 0, frame = 0
 169              		@ frame_needed = 0, uses_anonymous_args = 0
 170 0000 08B5     		push	{r3, lr}
 171              		.cfi_def_cfa_offset 8
 172              		.cfi_offset 3, -8
 173              		.cfi_offset 14, -4
  30:motorFunktioner.c **** mode_Write(0b00001001);
 174              		.loc 1 30 0
 175 0002 0920     		movs	r0, #9
 176 0004 FFF7FEFF 		bl	mode_Write
 177              	.LVL20:
 178 0008 08BD     		pop	{r3, pc}
 179              		.cfi_endproc
 180              	.LFE66:
 181              		.size	fastStop, .-fastStop
 182 000a 00BF     		.section	.text.stop,"ax",%progbits
 183              		.align	2
 184              		.global	stop
 185              		.thumb
 186              		.thumb_func
 187              		.type	stop, %function
 188              	stop:
 189              	.LFB67:
  31:motorFunktioner.c **** }
  32:motorFunktioner.c **** 
  33:motorFunktioner.c **** void stop(){
 190              		.loc 1 33 0
 191              		.cfi_startproc
 192              		@ args = 0, pretend = 0, frame = 0
 193              		@ frame_needed = 0, uses_anonymous_args = 0
 194 0000 08B5     		push	{r3, lr}
 195              		.cfi_def_cfa_offset 8
ARM GAS  C:\Users\andre\AppData\Local\Temp\ccYcWgmZ.s 			page 5


 196              		.cfi_offset 3, -8
 197              		.cfi_offset 14, -4
  34:motorFunktioner.c **** mode_Write(0b00000000);
 198              		.loc 1 34 0
 199 0002 0020     		movs	r0, #0
 200 0004 FFF7FEFF 		bl	mode_Write
 201              	.LVL21:
 202 0008 08BD     		pop	{r3, pc}
 203              		.cfi_endproc
 204              	.LFE67:
 205              		.size	stop, .-stop
 206 000a 00BF     		.section	.text.kortilbage,"ax",%progbits
 207              		.align	2
 208              		.global	kortilbage
 209              		.thumb
 210              		.thumb_func
 211              		.type	kortilbage, %function
 212              	kortilbage:
 213              	.LFB68:
  35:motorFunktioner.c **** }
  36:motorFunktioner.c **** 
  37:motorFunktioner.c **** void kortilbage(int calL, int calR, int PWML, int PWMR) {
 214              		.loc 1 37 0
 215              		.cfi_startproc
 216              		@ args = 0, pretend = 0, frame = 0
 217              		@ frame_needed = 0, uses_anonymous_args = 0
 218              	.LVL22:
 219 0000 F8B5     		push	{r3, r4, r5, r6, r7, lr}
 220              		.cfi_def_cfa_offset 24
 221              		.cfi_offset 3, -24
 222              		.cfi_offset 4, -20
 223              		.cfi_offset 5, -16
 224              		.cfi_offset 6, -12
 225              		.cfi_offset 7, -8
 226              		.cfi_offset 14, -4
 227 0002 0746     		mov	r7, r0
 228 0004 0E46     		mov	r6, r1
 229 0006 1546     		mov	r5, r2
 230 0008 1C46     		mov	r4, r3
  38:motorFunktioner.c **** mode_Write(0b00011110);
 231              		.loc 1 38 0
 232 000a 1E20     		movs	r0, #30
 233              	.LVL23:
 234 000c FFF7FEFF 		bl	mode_Write
 235              	.LVL24:
  39:motorFunktioner.c **** Motorpwm_Left_WriteCompare (calL + PWML);
 236              		.loc 1 39 0
 237 0010 7819     		adds	r0, r7, r5
 238 0012 C0B2     		uxtb	r0, r0
 239 0014 FFF7FEFF 		bl	Motorpwm_Left_WriteCompare
 240              	.LVL25:
  40:motorFunktioner.c **** Motorpwm_right_WriteCompare(calR + PWMR);
 241              		.loc 1 40 0
 242 0018 3019     		adds	r0, r6, r4
 243 001a C0B2     		uxtb	r0, r0
 244 001c FFF7FEFF 		bl	Motorpwm_right_WriteCompare
 245              	.LVL26:
ARM GAS  C:\Users\andre\AppData\Local\Temp\ccYcWgmZ.s 			page 6


 246 0020 F8BD     		pop	{r3, r4, r5, r6, r7, pc}
 247              		.cfi_endproc
 248              	.LFE68:
 249              		.size	kortilbage, .-kortilbage
 250 0022 00BF     		.section	.text.drejHojre,"ax",%progbits
 251              		.align	2
 252              		.global	drejHojre
 253              		.thumb
 254              		.thumb_func
 255              		.type	drejHojre, %function
 256              	drejHojre:
 257              	.LFB69:
  41:motorFunktioner.c **** }
  42:motorFunktioner.c **** 
  43:motorFunktioner.c **** void drejHojre(int calL, int calR, int PWML, int PWMR){
 258              		.loc 1 43 0
 259              		.cfi_startproc
 260              		@ args = 0, pretend = 0, frame = 0
 261              		@ frame_needed = 0, uses_anonymous_args = 0
 262              	.LVL27:
 263 0000 F8B5     		push	{r3, r4, r5, r6, r7, lr}
 264              		.cfi_def_cfa_offset 24
 265              		.cfi_offset 3, -24
 266              		.cfi_offset 4, -20
 267              		.cfi_offset 5, -16
 268              		.cfi_offset 6, -12
 269              		.cfi_offset 7, -8
 270              		.cfi_offset 14, -4
 271 0002 0746     		mov	r7, r0
 272 0004 0E46     		mov	r6, r1
 273 0006 1546     		mov	r5, r2
 274 0008 1C46     		mov	r4, r3
  44:motorFunktioner.c **** 
  45:motorFunktioner.c **** mode_Write(0b00001010);
 275              		.loc 1 45 0
 276 000a 0A20     		movs	r0, #10
 277              	.LVL28:
 278 000c FFF7FEFF 		bl	mode_Write
 279              	.LVL29:
  46:motorFunktioner.c **** Motorpwm_Left_WriteCompare (calL + PWML);
 280              		.loc 1 46 0
 281 0010 7819     		adds	r0, r7, r5
 282 0012 C0B2     		uxtb	r0, r0
 283 0014 FFF7FEFF 		bl	Motorpwm_Left_WriteCompare
 284              	.LVL30:
  47:motorFunktioner.c **** Motorpwm_right_WriteCompare(calR + PWMR);
 285              		.loc 1 47 0
 286 0018 3019     		adds	r0, r6, r4
 287 001a C0B2     		uxtb	r0, r0
 288 001c FFF7FEFF 		bl	Motorpwm_right_WriteCompare
 289              	.LVL31:
 290 0020 F8BD     		pop	{r3, r4, r5, r6, r7, pc}
 291              		.cfi_endproc
 292              	.LFE69:
 293              		.size	drejHojre, .-drejHojre
 294 0022 00BF     		.section	.text.drejVenstre,"ax",%progbits
 295              		.align	2
ARM GAS  C:\Users\andre\AppData\Local\Temp\ccYcWgmZ.s 			page 7


 296              		.global	drejVenstre
 297              		.thumb
 298              		.thumb_func
 299              		.type	drejVenstre, %function
 300              	drejVenstre:
 301              	.LFB70:
  48:motorFunktioner.c **** }
  49:motorFunktioner.c **** 
  50:motorFunktioner.c **** void drejVenstre(int calL, int calR, int PWML, int PWMR){
 302              		.loc 1 50 0
 303              		.cfi_startproc
 304              		@ args = 0, pretend = 0, frame = 0
 305              		@ frame_needed = 0, uses_anonymous_args = 0
 306              	.LVL32:
 307 0000 F8B5     		push	{r3, r4, r5, r6, r7, lr}
 308              		.cfi_def_cfa_offset 24
 309              		.cfi_offset 3, -24
 310              		.cfi_offset 4, -20
 311              		.cfi_offset 5, -16
 312              		.cfi_offset 6, -12
 313              		.cfi_offset 7, -8
 314              		.cfi_offset 14, -4
 315 0002 0746     		mov	r7, r0
 316 0004 0E46     		mov	r6, r1
 317 0006 1546     		mov	r5, r2
 318 0008 1C46     		mov	r4, r3
  51:motorFunktioner.c **** 
  52:motorFunktioner.c **** mode_Write(0b00001100);
 319              		.loc 1 52 0
 320 000a 0C20     		movs	r0, #12
 321              	.LVL33:
 322 000c FFF7FEFF 		bl	mode_Write
 323              	.LVL34:
  53:motorFunktioner.c **** Motorpwm_Left_WriteCompare (calL + PWML);
 324              		.loc 1 53 0
 325 0010 7819     		adds	r0, r7, r5
 326 0012 C0B2     		uxtb	r0, r0
 327 0014 FFF7FEFF 		bl	Motorpwm_Left_WriteCompare
 328              	.LVL35:
  54:motorFunktioner.c **** Motorpwm_right_WriteCompare(calR + PWMR);
 329              		.loc 1 54 0
 330 0018 3019     		adds	r0, r6, r4
 331 001a C0B2     		uxtb	r0, r0
 332 001c FFF7FEFF 		bl	Motorpwm_right_WriteCompare
 333              	.LVL36:
 334 0020 F8BD     		pop	{r3, r4, r5, r6, r7, pc}
 335              		.cfi_endproc
 336              	.LFE70:
 337              		.size	drejVenstre, .-drejVenstre
 338 0022 00BF     		.text
 339              	.Letext0:
 340              		.file 2 "c:\\program files (x86)\\cypress\\psoc creator\\4.2\\psoc creator\\import\\gnu\\arm\\5.4.
 341              		.file 3 "c:\\program files (x86)\\cypress\\psoc creator\\4.2\\psoc creator\\import\\gnu\\arm\\5.4.
 342              		.file 4 "Generated_Source\\PSoC5/Motorpwm_Left.h"
 343              		.file 5 "Generated_Source\\PSoC5/Motorpwm_right.h"
 344              		.file 6 "Generated_Source\\PSoC5/ADC_calL.h"
 345              		.file 7 "Generated_Source\\PSoC5/ADC_calR.h"
ARM GAS  C:\Users\andre\AppData\Local\Temp\ccYcWgmZ.s 			page 8


 346              		.file 8 "Generated_Source\\PSoC5/mode.h"
 347              		.file 9 "Generated_Source\\PSoC5/core_cm3.h"