ARM GAS  C:\Users\andre\AppData\Local\Temp\ccN00Pxb.s 			page 1


   1              		.syntax unified
   2              		.cpu cortex-m3
   3              		.fpu softvfp
   4              		.eabi_attribute 20, 1
   5              		.eabi_attribute 21, 1
   6              		.eabi_attribute 23, 3
   7              		.eabi_attribute 24, 1
   8              		.eabi_attribute 25, 1
   9              		.eabi_attribute 26, 1
  10              		.eabi_attribute 30, 1
  11              		.eabi_attribute 34, 1
  12              		.eabi_attribute 18, 4
  13              		.thumb
  14              		.syntax unified
  15              		.file	"opsamlerStyring.c"
  16              		.text
  17              	.Ltext0:
  18              		.cfi_sections	.debug_frame
  19              		.section	.text.stepper_up,"ax",%progbits
  20              		.align	2
  21              		.global	stepper_up
  22              		.thumb
  23              		.thumb_func
  24              		.type	stepper_up, %function
  25              	stepper_up:
  26              	.LFB64:
  27              		.file 1 "opsamlerStyring.c"
   1:opsamlerStyring.c **** #include "project.h"
   2:opsamlerStyring.c **** #include "opsamlerStyring.h"
   3:opsamlerStyring.c **** 
   4:opsamlerStyring.c **** void stepper_init(){
   5:opsamlerStyring.c ****     stepper_up(12);
   6:opsamlerStyring.c **** }
   7:opsamlerStyring.c **** void stepper_up(uint8_t steps) {
  28              		.loc 1 7 0
  29              		.cfi_startproc
  30              		@ args = 0, pretend = 0, frame = 0
  31              		@ frame_needed = 0, uses_anonymous_args = 0
  32              	.LVL0:
  33 0000 08B5     		push	{r3, lr}
  34              		.cfi_def_cfa_offset 8
  35              		.cfi_offset 3, -8
  36              		.cfi_offset 14, -4
   8:opsamlerStyring.c ****     
   9:opsamlerStyring.c ****     Steps_1_Write(steps);
  37              		.loc 1 9 0
  38 0002 FFF7FEFF 		bl	Steps_1_Write
  39              	.LVL1:
  10:opsamlerStyring.c ****     Stepper_control_Write(0b00000000);
  40              		.loc 1 10 0
  41 0006 0020     		movs	r0, #0
  42 0008 FFF7FEFF 		bl	Stepper_control_Write
  43              	.LVL2:
  44 000c 08BD     		pop	{r3, pc}
  45              		.cfi_endproc
  46              	.LFE64:
  47              		.size	stepper_up, .-stepper_up
ARM GAS  C:\Users\andre\AppData\Local\Temp\ccN00Pxb.s 			page 2


  48 000e 00BF     		.section	.text.stepper_init,"ax",%progbits
  49              		.align	2
  50              		.global	stepper_init
  51              		.thumb
  52              		.thumb_func
  53              		.type	stepper_init, %function
  54              	stepper_init:
  55              	.LFB63:
   4:opsamlerStyring.c ****     stepper_up(12);
  56              		.loc 1 4 0
  57              		.cfi_startproc
  58              		@ args = 0, pretend = 0, frame = 0
  59              		@ frame_needed = 0, uses_anonymous_args = 0
  60 0000 08B5     		push	{r3, lr}
  61              		.cfi_def_cfa_offset 8
  62              		.cfi_offset 3, -8
  63              		.cfi_offset 14, -4
   5:opsamlerStyring.c **** }
  64              		.loc 1 5 0
  65 0002 0C20     		movs	r0, #12
  66 0004 FFF7FEFF 		bl	stepper_up
  67              	.LVL3:
  68 0008 08BD     		pop	{r3, pc}
  69              		.cfi_endproc
  70              	.LFE63:
  71              		.size	stepper_init, .-stepper_init
  72 000a 00BF     		.section	.text.stepper_down,"ax",%progbits
  73              		.align	2
  74              		.global	stepper_down
  75              		.thumb
  76              		.thumb_func
  77              		.type	stepper_down, %function
  78              	stepper_down:
  79              	.LFB65:
  11:opsamlerStyring.c **** }
  12:opsamlerStyring.c **** void stepper_down(uint8_t steps) {
  80              		.loc 1 12 0
  81              		.cfi_startproc
  82              		@ args = 0, pretend = 0, frame = 0
  83              		@ frame_needed = 0, uses_anonymous_args = 0
  84              	.LVL4:
  85 0000 08B5     		push	{r3, lr}
  86              		.cfi_def_cfa_offset 8
  87              		.cfi_offset 3, -8
  88              		.cfi_offset 14, -4
  13:opsamlerStyring.c ****     Steps_1_Write(steps);
  89              		.loc 1 13 0
  90 0002 FFF7FEFF 		bl	Steps_1_Write
  91              	.LVL5:
  14:opsamlerStyring.c ****     Stepper_control_Write(0b00000010);
  92              		.loc 1 14 0
  93 0006 0220     		movs	r0, #2
  94 0008 FFF7FEFF 		bl	Stepper_control_Write
  95              	.LVL6:
  96 000c 08BD     		pop	{r3, pc}
  97              		.cfi_endproc
  98              	.LFE65:
ARM GAS  C:\Users\andre\AppData\Local\Temp\ccN00Pxb.s 			page 3


  99              		.size	stepper_down, .-stepper_down
 100 000e 00BF     		.section	.text.stepper_stop,"ax",%progbits
 101              		.align	2
 102              		.global	stepper_stop
 103              		.thumb
 104              		.thumb_func
 105              		.type	stepper_stop, %function
 106              	stepper_stop:
 107              	.LFB66:
  15:opsamlerStyring.c **** }
  16:opsamlerStyring.c **** 
  17:opsamlerStyring.c **** void stepper_stop(){
 108              		.loc 1 17 0
 109              		.cfi_startproc
 110              		@ args = 0, pretend = 0, frame = 0
 111              		@ frame_needed = 0, uses_anonymous_args = 0
 112 0000 08B5     		push	{r3, lr}
 113              		.cfi_def_cfa_offset 8
 114              		.cfi_offset 3, -8
 115              		.cfi_offset 14, -4
  18:opsamlerStyring.c **** Stepper_control_Write(0b00000001);
 116              		.loc 1 18 0
 117 0002 0120     		movs	r0, #1
 118 0004 FFF7FEFF 		bl	Stepper_control_Write
 119              	.LVL7:
 120 0008 08BD     		pop	{r3, pc}
 121              		.cfi_endproc
 122              	.LFE66:
 123              		.size	stepper_stop, .-stepper_stop
 124 000a 00BF     		.text
 125              	.Letext0:
 126              		.file 2 "c:\\program files (x86)\\cypress\\psoc creator\\4.2\\psoc creator\\import\\gnu\\arm\\5.4.
 127              		.file 3 "c:\\program files (x86)\\cypress\\psoc creator\\4.2\\psoc creator\\import\\gnu\\arm\\5.4.
 128              		.file 4 "Generated_Source\\PSoC5/Steps_1.h"
 129              		.file 5 "Generated_Source\\PSoC5/Stepper_control.h"
 130              		.file 6 "Generated_Source\\PSoC5/core_cm3.h"