ARM GAS  C:\Users\Chris\AppData\Local\Temp\ccuA5Sdf.s 			page 1


   1              		.syntax unified
   2              		.cpu cortex-m3
   3              		.fpu softvfp
   4              		.eabi_attribute 20, 1
   5              		.eabi_attribute 21, 1
   6              		.eabi_attribute 23, 3
   7              		.eabi_attribute 24, 1
   8              		.eabi_attribute 25, 1
   9              		.eabi_attribute 26, 1
  10              		.eabi_attribute 30, 1
  11              		.eabi_attribute 34, 1
  12              		.eabi_attribute 18, 4
  13              		.thumb
  14              		.syntax unified
  15              		.file	"main.c"
  16              		.text
  17              	.Ltext0:
  18              		.cfi_sections	.debug_frame
  19              		.section	.text.stepper_init,"ax",%progbits
  20              		.align	2
  21              		.global	stepper_init
  22              		.thumb
  23              		.thumb_func
  24              		.type	stepper_init, %function
  25              	stepper_init:
  26              	.LFB64:
  27              		.file 1 "main.c"
   1:main.c        **** /* ========================================
   2:main.c        ****  *
   3:main.c        ****  * Copyright YOUR COMPANY, THE YEAR
   4:main.c        ****  * All Rights Reserved
   5:main.c        ****  * UNPUBLISHED, LICENSED SOFTWARE.
   6:main.c        ****  *
   7:main.c        ****  * CONFIDENTIAL AND PROPRIETARY INFORMATION
   8:main.c        ****  * WHICH IS THE PROPERTY OF your company.
   9:main.c        ****  *
  10:main.c        ****  * ========================================
  11:main.c        **** */
  12:main.c        **** #include "project.h"
  13:main.c        **** void stepper_forward(uint8 steps);
  14:main.c        **** void stepper_reverse(uint8 steps);
  15:main.c        **** int main(void)
  16:main.c        **** {
  17:main.c        ****     //CyGlobalIntEnable; /* Enable global interrupts. */
  18:main.c        **** 
  19:main.c        ****     /* Place your initialization/startup code here (e.g. MyInst_Start()) */
  20:main.c        **** 
  21:main.c        ****     for(;;)
  22:main.c        ****     {
  23:main.c        ****         CyDelay(5000);
  24:main.c        ****       stepper_forward(20);
  25:main.c        ****       
  26:main.c        ****     }
  27:main.c        **** }
  28:main.c        **** 
  29:main.c        **** void stepper_init(){
  28              		.loc 1 29 0
ARM GAS  C:\Users\Chris\AppData\Local\Temp\ccuA5Sdf.s 			page 2


  29              		.cfi_startproc
  30              		@ args = 0, pretend = 0, frame = 0
  31              		@ frame_needed = 0, uses_anonymous_args = 0
  32              		@ link register save eliminated.
  33 0000 7047     		bx	lr
  34              		.cfi_endproc
  35              	.LFE64:
  36              		.size	stepper_init, .-stepper_init
  37 0002 00BF     		.section	.text.stepper_forward,"ax",%progbits
  38              		.align	2
  39              		.global	stepper_forward
  40              		.thumb
  41              		.thumb_func
  42              		.type	stepper_forward, %function
  43              	stepper_forward:
  44              	.LFB65:
  30:main.c        **** 
  31:main.c        **** 
  32:main.c        **** }
  33:main.c        **** 
  34:main.c        **** void stepper_forward(uint8 steps) {
  45              		.loc 1 34 0
  46              		.cfi_startproc
  47              		@ args = 0, pretend = 0, frame = 0
  48              		@ frame_needed = 0, uses_anonymous_args = 0
  49              	.LVL0:
  50              		.loc 1 34 0
  51 0000 08B5     		push	{r3, lr}
  52              		.cfi_def_cfa_offset 8
  53              		.cfi_offset 3, -8
  54              		.cfi_offset 14, -4
  35:main.c        **** 
  36:main.c        ****     Steps_Write(steps);
  55              		.loc 1 36 0
  56 0002 FFF7FEFF 		bl	Steps_Write
  57              	.LVL1:
  37:main.c        ****     Stepper_control_Write(0b00000001);
  58              		.loc 1 37 0
  59 0006 0120     		movs	r0, #1
  60 0008 FFF7FEFF 		bl	Stepper_control_Write
  61              	.LVL2:
  38:main.c        ****     CyDelay(10);
  62              		.loc 1 38 0
  63 000c 0A20     		movs	r0, #10
  64 000e FFF7FEFF 		bl	CyDelay
  65              	.LVL3:
  39:main.c        ****     Stepper_control_Write(0b00000000);
  66              		.loc 1 39 0
  67 0012 0020     		movs	r0, #0
  68 0014 FFF7FEFF 		bl	Stepper_control_Write
  69              	.LVL4:
  70 0018 08BD     		pop	{r3, pc}
  71              		.cfi_endproc
  72              	.LFE65:
  73              		.size	stepper_forward, .-stepper_forward
  74 001a 00BF     		.section	.text.main,"ax",%progbits
  75              		.align	2
ARM GAS  C:\Users\Chris\AppData\Local\Temp\ccuA5Sdf.s 			page 3


  76              		.global	main
  77              		.thumb
  78              		.thumb_func
  79              		.type	main, %function
  80              	main:
  81              	.LFB63:
  16:main.c        ****     //CyGlobalIntEnable; /* Enable global interrupts. */
  82              		.loc 1 16 0
  83              		.cfi_startproc
  84              		@ Volatile: function does not return.
  85              		@ args = 0, pretend = 0, frame = 0
  86              		@ frame_needed = 0, uses_anonymous_args = 0
  87 0000 08B5     		push	{r3, lr}
  88              		.cfi_def_cfa_offset 8
  89              		.cfi_offset 3, -8
  90              		.cfi_offset 14, -4
  91              	.L5:
  23:main.c        ****       stepper_forward(20);
  92              		.loc 1 23 0 discriminator 1
  93 0002 41F28830 		movw	r0, #5000
  94 0006 FFF7FEFF 		bl	CyDelay
  95              	.LVL5:
  24:main.c        ****       
  96              		.loc 1 24 0 discriminator 1
  97 000a 1420     		movs	r0, #20
  98 000c FFF7FEFF 		bl	stepper_forward
  99              	.LVL6:
 100 0010 F7E7     		b	.L5
 101              		.cfi_endproc
 102              	.LFE63:
 103              		.size	main, .-main
 104 0012 00BF     		.section	.text.stepper_reverse,"ax",%progbits
 105              		.align	2
 106              		.global	stepper_reverse
 107              		.thumb
 108              		.thumb_func
 109              		.type	stepper_reverse, %function
 110              	stepper_reverse:
 111              	.LFB66:
  40:main.c        **** 
  41:main.c        **** }
  42:main.c        **** 
  43:main.c        **** void stepper_reverse(uint8 steps) {
 112              		.loc 1 43 0
 113              		.cfi_startproc
 114              		@ args = 0, pretend = 0, frame = 0
 115              		@ frame_needed = 0, uses_anonymous_args = 0
 116              	.LVL7:
 117 0000 08B5     		push	{r3, lr}
 118              		.cfi_def_cfa_offset 8
 119              		.cfi_offset 3, -8
 120              		.cfi_offset 14, -4
  44:main.c        **** 
  45:main.c        ****     Steps_Write(steps);
 121              		.loc 1 45 0
 122 0002 FFF7FEFF 		bl	Steps_Write
 123              	.LVL8:
ARM GAS  C:\Users\Chris\AppData\Local\Temp\ccuA5Sdf.s 			page 4


  46:main.c        ****     Stepper_control_Write(0b00000011);
 124              		.loc 1 46 0
 125 0006 0320     		movs	r0, #3
 126 0008 FFF7FEFF 		bl	Stepper_control_Write
 127              	.LVL9:
  47:main.c        ****     CyDelay(10);
 128              		.loc 1 47 0
 129 000c 0A20     		movs	r0, #10
 130 000e FFF7FEFF 		bl	CyDelay
 131              	.LVL10:
  48:main.c        ****     Stepper_control_Write(0b00000010);
 132              		.loc 1 48 0
 133 0012 0220     		movs	r0, #2
 134 0014 FFF7FEFF 		bl	Stepper_control_Write
 135              	.LVL11:
 136 0018 08BD     		pop	{r3, pc}
 137              		.cfi_endproc
 138              	.LFE66:
 139              		.size	stepper_reverse, .-stepper_reverse
 140 001a 00BF     		.text
 141              	.Letext0:
 142              		.file 2 "c:\\program files (x86)\\cypress\\psoc creator\\4.2\\psoc creator\\import\\gnu\\arm\\5.4.
 143              		.file 3 "c:\\program files (x86)\\cypress\\psoc creator\\4.2\\psoc creator\\import\\gnu\\arm\\5.4.
 144              		.file 4 "Generated_Source\\PSoC5/cytypes.h"
 145              		.file 5 "Generated_Source\\PSoC5/Steps.h"
 146              		.file 6 "Generated_Source\\PSoC5/Stepper_control.h"
 147              		.file 7 "Generated_Source\\PSoC5/CyLib.h"
 148              		.file 8 "Generated_Source\\PSoC5/core_cm3.h"