ARM GAS  C:\Users\Chris\AppData\Local\Temp\ccVV10g5.s 			page 1


   1              		.syntax unified
   2              		.cpu cortex-m3
   3              		.fpu softvfp
   4              		.eabi_attribute 20, 1
   5              		.eabi_attribute 21, 1
   6              		.eabi_attribute 23, 3
   7              		.eabi_attribute 24, 1
   8              		.eabi_attribute 25, 1
   9              		.eabi_attribute 26, 1
  10              		.eabi_attribute 30, 1
  11              		.eabi_attribute 34, 1
  12              		.eabi_attribute 18, 4
  13              		.thumb
  14              		.syntax unified
  15              		.file	"main.c"
  16              		.text
  17              	.Ltext0:
  18              		.cfi_sections	.debug_frame
  19              		.section	.text.korFrem,"ax",%progbits
  20              		.align	2
  21              		.global	korFrem
  22              		.thumb
  23              		.thumb_func
  24              		.type	korFrem, %function
  25              	korFrem:
  26              	.LFB64:
  27              		.file 1 "main.c"
   1:main.c        **** /* ========================================
   2:main.c        ****  *
   3:main.c        ****  * Copyright YOUR COMPANY, THE YEAR
   4:main.c        ****  * All Rights Reserved
   5:main.c        ****  * UNPUBLISHED, LICENSED SOFTWARE.
   6:main.c        ****  *
   7:main.c        ****  * CONFIDENTIAL AND PROPRIETARY INFORMATION
   8:main.c        ****  * WHICH IS THE PROPERTY OF your company.
   9:main.c        ****  *
  10:main.c        ****  * ========================================
  11:main.c        **** */
  12:main.c        **** #include "project.h"
  13:main.c        **** void korFrem(int calL, int calR, int PWML, int PWMR);
  14:main.c        **** void fastStop();
  15:main.c        **** void stop();
  16:main.c        **** void kortilbage(int calL, int calR,int PWML, int PWMR);
  17:main.c        **** void drejVenstre(int calL, int calR, int PWML, int PWMR);
  18:main.c        **** void drejHojre(int calL, int calR, int PWML, int PWMR);
  19:main.c        **** 
  20:main.c        **** int main(void)
  21:main.c        **** {
  22:main.c        ****     CyGlobalIntEnable; /* Enable global interrupts. */
  23:main.c        ****     Motorpwm_Left_Init();
  24:main.c        ****     Motorpwm_right_Init();
  25:main.c        ****     Motorpwm_right_Start();
  26:main.c        ****     Motorpwm_Left_Start();
  27:main.c        ****     ADC_calL_Init();
  28:main.c        ****     ADC_calR_Init();
  29:main.c        ****     ADC_calL_Start();
  30:main.c        ****     ADC_calR_Start();
ARM GAS  C:\Users\Chris\AppData\Local\Temp\ccVV10g5.s 			page 2


  31:main.c        ****     ADC_calL_StartConvert();
  32:main.c        ****     ADC_calR_StartConvert();
  33:main.c        ****     
  34:main.c        ****     
  35:main.c        ****     /* Place your initialization/startup code here (e.g. MyInst_Start()) */
  36:main.c        **** 
  37:main.c        ****     for(;;)
  38:main.c        ****     {
  39:main.c        ****         korFrem(ADC_calL_GetResult8(), ADC_calR_GetResult8(), 0, 0);
  40:main.c        ****     }
  41:main.c        **** }
  42:main.c        **** 
  43:main.c        **** void korFrem(int calL, int calR, int PWML, int PWMR) {
  28              		.loc 1 43 0
  29              		.cfi_startproc
  30              		@ args = 0, pretend = 0, frame = 0
  31              		@ frame_needed = 0, uses_anonymous_args = 0
  32              	.LVL0:
  33 0000 F8B5     		push	{r3, r4, r5, r6, r7, lr}
  34              		.cfi_def_cfa_offset 24
  35              		.cfi_offset 3, -24
  36              		.cfi_offset 4, -20
  37              		.cfi_offset 5, -16
  38              		.cfi_offset 6, -12
  39              		.cfi_offset 7, -8
  40              		.cfi_offset 14, -4
  41 0002 0746     		mov	r7, r0
  42 0004 0E46     		mov	r6, r1
  43 0006 1546     		mov	r5, r2
  44 0008 1C46     		mov	r4, r3
  44:main.c        **** mode_Write(0b00000000);
  45              		.loc 1 44 0
  46 000a 0020     		movs	r0, #0
  47              	.LVL1:
  48 000c FFF7FEFF 		bl	mode_Write
  49              	.LVL2:
  45:main.c        **** Motorpwm_Left_WriteCompare (calL + PWML);
  50              		.loc 1 45 0
  51 0010 7819     		adds	r0, r7, r5
  52 0012 C0B2     		uxtb	r0, r0
  53 0014 FFF7FEFF 		bl	Motorpwm_Left_WriteCompare
  54              	.LVL3:
  46:main.c        **** Motorpwm_right_WriteCompare(calR + PWMR);
  55              		.loc 1 46 0
  56 0018 3019     		adds	r0, r6, r4
  57 001a C0B2     		uxtb	r0, r0
  58 001c FFF7FEFF 		bl	Motorpwm_right_WriteCompare
  59              	.LVL4:
  47:main.c        **** 
  48:main.c        **** Enable_Right_Write(1);
  60              		.loc 1 48 0
  61 0020 0120     		movs	r0, #1
  62 0022 FFF7FEFF 		bl	Enable_Right_Write
  63              	.LVL5:
  49:main.c        **** Enable_Left_Write(1);
  64              		.loc 1 49 0
  65 0026 0120     		movs	r0, #1
ARM GAS  C:\Users\Chris\AppData\Local\Temp\ccVV10g5.s 			page 3


  66 0028 FFF7FEFF 		bl	Enable_Left_Write
  67              	.LVL6:
  68 002c F8BD     		pop	{r3, r4, r5, r6, r7, pc}
  69              		.cfi_endproc
  70              	.LFE64:
  71              		.size	korFrem, .-korFrem
  72 002e 00BF     		.section	.text.main,"ax",%progbits
  73              		.align	2
  74              		.global	main
  75              		.thumb
  76              		.thumb_func
  77              		.type	main, %function
  78              	main:
  79              	.LFB63:
  21:main.c        ****     CyGlobalIntEnable; /* Enable global interrupts. */
  80              		.loc 1 21 0
  81              		.cfi_startproc
  82              		@ Volatile: function does not return.
  83              		@ args = 0, pretend = 0, frame = 0
  84              		@ frame_needed = 0, uses_anonymous_args = 0
  85 0000 08B5     		push	{r3, lr}
  86              		.cfi_def_cfa_offset 8
  87              		.cfi_offset 3, -8
  88              		.cfi_offset 14, -4
  22:main.c        ****     Motorpwm_Left_Init();
  89              		.loc 1 22 0
  90              		.syntax unified
  91              	@ 22 "main.c" 1
  92 0002 62B6     		CPSIE   i
  93              	@ 0 "" 2
  23:main.c        ****     Motorpwm_right_Init();
  94              		.loc 1 23 0
  95              		.thumb
  96              		.syntax unified
  97 0004 FFF7FEFF 		bl	Motorpwm_Left_Init
  98              	.LVL7:
  24:main.c        ****     Motorpwm_right_Start();
  99              		.loc 1 24 0
 100 0008 FFF7FEFF 		bl	Motorpwm_right_Init
 101              	.LVL8:
  25:main.c        ****     Motorpwm_Left_Start();
 102              		.loc 1 25 0
 103 000c FFF7FEFF 		bl	Motorpwm_right_Start
 104              	.LVL9:
  26:main.c        ****     ADC_calL_Init();
 105              		.loc 1 26 0
 106 0010 FFF7FEFF 		bl	Motorpwm_Left_Start
 107              	.LVL10:
  27:main.c        ****     ADC_calR_Init();
 108              		.loc 1 27 0
 109 0014 FFF7FEFF 		bl	ADC_calL_Init
 110              	.LVL11:
  28:main.c        ****     ADC_calL_Start();
 111              		.loc 1 28 0
 112 0018 FFF7FEFF 		bl	ADC_calR_Init
 113              	.LVL12:
  29:main.c        ****     ADC_calR_Start();
ARM GAS  C:\Users\Chris\AppData\Local\Temp\ccVV10g5.s 			page 4


 114              		.loc 1 29 0
 115 001c FFF7FEFF 		bl	ADC_calL_Start
 116              	.LVL13:
  30:main.c        ****     ADC_calL_StartConvert();
 117              		.loc 1 30 0
 118 0020 FFF7FEFF 		bl	ADC_calR_Start
 119              	.LVL14:
  31:main.c        ****     ADC_calR_StartConvert();
 120              		.loc 1 31 0
 121 0024 FFF7FEFF 		bl	ADC_calL_StartConvert
 122              	.LVL15:
  32:main.c        ****     
 123              		.loc 1 32 0
 124 0028 FFF7FEFF 		bl	ADC_calR_StartConvert
 125              	.LVL16:
 126              	.L4:
  39:main.c        ****     }
 127              		.loc 1 39 0 discriminator 1
 128 002c FFF7FEFF 		bl	ADC_calL_GetResult8
 129              	.LVL17:
 130 0030 0446     		mov	r4, r0
 131 0032 FFF7FEFF 		bl	ADC_calR_GetResult8
 132              	.LVL18:
 133 0036 0023     		movs	r3, #0
 134 0038 1A46     		mov	r2, r3
 135 003a 0146     		mov	r1, r0
 136 003c 2046     		mov	r0, r4
 137 003e FFF7FEFF 		bl	korFrem
 138              	.LVL19:
 139 0042 F3E7     		b	.L4
 140              		.cfi_endproc
 141              	.LFE63:
 142              		.size	main, .-main
 143              		.section	.text.fastStop,"ax",%progbits
 144              		.align	2
 145              		.global	fastStop
 146              		.thumb
 147              		.thumb_func
 148              		.type	fastStop, %function
 149              	fastStop:
 150              	.LFB65:
  50:main.c        **** }
  51:main.c        **** 
  52:main.c        **** void fastStop() {
 151              		.loc 1 52 0
 152              		.cfi_startproc
 153              		@ args = 0, pretend = 0, frame = 0
 154              		@ frame_needed = 0, uses_anonymous_args = 0
 155 0000 08B5     		push	{r3, lr}
 156              		.cfi_def_cfa_offset 8
 157              		.cfi_offset 3, -8
 158              		.cfi_offset 14, -4
  53:main.c        **** 
  54:main.c        **** Enable_Right_Write(1);
 159              		.loc 1 54 0
 160 0002 0120     		movs	r0, #1
 161 0004 FFF7FEFF 		bl	Enable_Right_Write
ARM GAS  C:\Users\Chris\AppData\Local\Temp\ccVV10g5.s 			page 5


 162              	.LVL20:
  55:main.c        **** Enable_Left_Write(1);
 163              		.loc 1 55 0
 164 0008 0120     		movs	r0, #1
 165 000a FFF7FEFF 		bl	Enable_Left_Write
 166              	.LVL21:
  56:main.c        **** mode_Write(0b00000001);
 167              		.loc 1 56 0
 168 000e 0120     		movs	r0, #1
 169 0010 FFF7FEFF 		bl	mode_Write
 170              	.LVL22:
 171 0014 08BD     		pop	{r3, pc}
 172              		.cfi_endproc
 173              	.LFE65:
 174              		.size	fastStop, .-fastStop
 175 0016 00BF     		.section	.text.stop,"ax",%progbits
 176              		.align	2
 177              		.global	stop
 178              		.thumb
 179              		.thumb_func
 180              		.type	stop, %function
 181              	stop:
 182              	.LFB66:
  57:main.c        **** }
  58:main.c        **** 
  59:main.c        **** void stop(){
 183              		.loc 1 59 0
 184              		.cfi_startproc
 185              		@ args = 0, pretend = 0, frame = 0
 186              		@ frame_needed = 0, uses_anonymous_args = 0
 187 0000 08B5     		push	{r3, lr}
 188              		.cfi_def_cfa_offset 8
 189              		.cfi_offset 3, -8
 190              		.cfi_offset 14, -4
  60:main.c        **** Enable_Right_Write(0);
 191              		.loc 1 60 0
 192 0002 0020     		movs	r0, #0
 193 0004 FFF7FEFF 		bl	Enable_Right_Write
 194              	.LVL23:
  61:main.c        **** Enable_Left_Write(0);
 195              		.loc 1 61 0
 196 0008 0020     		movs	r0, #0
 197 000a FFF7FEFF 		bl	Enable_Left_Write
 198              	.LVL24:
 199 000e 08BD     		pop	{r3, pc}
 200              		.cfi_endproc
 201              	.LFE66:
 202              		.size	stop, .-stop
 203              		.section	.text.kortilbage,"ax",%progbits
 204              		.align	2
 205              		.global	kortilbage
 206              		.thumb
 207              		.thumb_func
 208              		.type	kortilbage, %function
 209              	kortilbage:
 210              	.LFB67:
  62:main.c        **** 
ARM GAS  C:\Users\Chris\AppData\Local\Temp\ccVV10g5.s 			page 6


  63:main.c        **** }
  64:main.c        **** 
  65:main.c        **** void kortilbage(int calL, int calR, int PWML, int PWMR) {
 211              		.loc 1 65 0
 212              		.cfi_startproc
 213              		@ args = 0, pretend = 0, frame = 0
 214              		@ frame_needed = 0, uses_anonymous_args = 0
 215              	.LVL25:
 216 0000 F8B5     		push	{r3, r4, r5, r6, r7, lr}
 217              		.cfi_def_cfa_offset 24
 218              		.cfi_offset 3, -24
 219              		.cfi_offset 4, -20
 220              		.cfi_offset 5, -16
 221              		.cfi_offset 6, -12
 222              		.cfi_offset 7, -8
 223              		.cfi_offset 14, -4
 224 0002 0746     		mov	r7, r0
 225 0004 0E46     		mov	r6, r1
 226 0006 1546     		mov	r5, r2
 227 0008 1C46     		mov	r4, r3
  66:main.c        **** mode_Write(0b00000110);
 228              		.loc 1 66 0
 229 000a 0620     		movs	r0, #6
 230              	.LVL26:
 231 000c FFF7FEFF 		bl	mode_Write
 232              	.LVL27:
  67:main.c        **** Motorpwm_Left_WriteCompare (calL + PWML);
 233              		.loc 1 67 0
 234 0010 7819     		adds	r0, r7, r5
 235 0012 C0B2     		uxtb	r0, r0
 236 0014 FFF7FEFF 		bl	Motorpwm_Left_WriteCompare
 237              	.LVL28:
  68:main.c        **** Motorpwm_right_WriteCompare(calR + PWMR);
 238              		.loc 1 68 0
 239 0018 3019     		adds	r0, r6, r4
 240 001a C0B2     		uxtb	r0, r0
 241 001c FFF7FEFF 		bl	Motorpwm_right_WriteCompare
 242              	.LVL29:
  69:main.c        **** Enable_Right_Write(1);
 243              		.loc 1 69 0
 244 0020 0120     		movs	r0, #1
 245 0022 FFF7FEFF 		bl	Enable_Right_Write
 246              	.LVL30:
  70:main.c        **** Enable_Left_Write(1);
 247              		.loc 1 70 0
 248 0026 0120     		movs	r0, #1
 249 0028 FFF7FEFF 		bl	Enable_Left_Write
 250              	.LVL31:
 251 002c F8BD     		pop	{r3, r4, r5, r6, r7, pc}
 252              		.cfi_endproc
 253              	.LFE67:
 254              		.size	kortilbage, .-kortilbage
 255 002e 00BF     		.section	.text.drejVenstre,"ax",%progbits
 256              		.align	2
 257              		.global	drejVenstre
 258              		.thumb
 259              		.thumb_func
ARM GAS  C:\Users\Chris\AppData\Local\Temp\ccVV10g5.s 			page 7


 260              		.type	drejVenstre, %function
 261              	drejVenstre:
 262              	.LFB68:
  71:main.c        **** 
  72:main.c        **** }
  73:main.c        **** 
  74:main.c        **** void drejVenstre(int calL, int calR, int PWML, int PWMR){
 263              		.loc 1 74 0
 264              		.cfi_startproc
 265              		@ args = 0, pretend = 0, frame = 0
 266              		@ frame_needed = 0, uses_anonymous_args = 0
 267              	.LVL32:
 268 0000 F8B5     		push	{r3, r4, r5, r6, r7, lr}
 269              		.cfi_def_cfa_offset 24
 270              		.cfi_offset 3, -24
 271              		.cfi_offset 4, -20
 272              		.cfi_offset 5, -16
 273              		.cfi_offset 6, -12
 274              		.cfi_offset 7, -8
 275              		.cfi_offset 14, -4
 276 0002 0746     		mov	r7, r0
 277 0004 0E46     		mov	r6, r1
 278 0006 1546     		mov	r5, r2
 279 0008 1C46     		mov	r4, r3
  75:main.c        **** 
  76:main.c        **** mode_Write(0b00000010);
 280              		.loc 1 76 0
 281 000a 0220     		movs	r0, #2
 282              	.LVL33:
 283 000c FFF7FEFF 		bl	mode_Write
 284              	.LVL34:
  77:main.c        **** Motorpwm_Left_WriteCompare (calL + PWML);
 285              		.loc 1 77 0
 286 0010 7819     		adds	r0, r7, r5
 287 0012 C0B2     		uxtb	r0, r0
 288 0014 FFF7FEFF 		bl	Motorpwm_Left_WriteCompare
 289              	.LVL35:
  78:main.c        **** Motorpwm_right_WriteCompare(calR + PWMR);
 290              		.loc 1 78 0
 291 0018 3019     		adds	r0, r6, r4
 292 001a C0B2     		uxtb	r0, r0
 293 001c FFF7FEFF 		bl	Motorpwm_right_WriteCompare
 294              	.LVL36:
  79:main.c        **** Enable_Right_Write(1);
 295              		.loc 1 79 0
 296 0020 0120     		movs	r0, #1
 297 0022 FFF7FEFF 		bl	Enable_Right_Write
 298              	.LVL37:
  80:main.c        **** Enable_Left_Write(1);
 299              		.loc 1 80 0
 300 0026 0120     		movs	r0, #1
 301 0028 FFF7FEFF 		bl	Enable_Left_Write
 302              	.LVL38:
 303 002c F8BD     		pop	{r3, r4, r5, r6, r7, pc}
 304              		.cfi_endproc
 305              	.LFE68:
 306              		.size	drejVenstre, .-drejVenstre
ARM GAS  C:\Users\Chris\AppData\Local\Temp\ccVV10g5.s 			page 8


 307 002e 00BF     		.section	.text.drejHojre,"ax",%progbits
 308              		.align	2
 309              		.global	drejHojre
 310              		.thumb
 311              		.thumb_func
 312              		.type	drejHojre, %function
 313              	drejHojre:
 314              	.LFB69:
  81:main.c        **** 
  82:main.c        **** }
  83:main.c        **** 
  84:main.c        **** void drejHojre(int calL, int calR, int PWML, int PWMR){
 315              		.loc 1 84 0
 316              		.cfi_startproc
 317              		@ args = 0, pretend = 0, frame = 0
 318              		@ frame_needed = 0, uses_anonymous_args = 0
 319              	.LVL39:
 320 0000 F8B5     		push	{r3, r4, r5, r6, r7, lr}
 321              		.cfi_def_cfa_offset 24
 322              		.cfi_offset 3, -24
 323              		.cfi_offset 4, -20
 324              		.cfi_offset 5, -16
 325              		.cfi_offset 6, -12
 326              		.cfi_offset 7, -8
 327              		.cfi_offset 14, -4
 328 0002 0746     		mov	r7, r0
 329 0004 0E46     		mov	r6, r1
 330 0006 1546     		mov	r5, r2
 331 0008 1C46     		mov	r4, r3
  85:main.c        **** 
  86:main.c        **** mode_Write(0b00000100);
 332              		.loc 1 86 0
 333 000a 0420     		movs	r0, #4
 334              	.LVL40:
 335 000c FFF7FEFF 		bl	mode_Write
 336              	.LVL41:
  87:main.c        **** Motorpwm_Left_WriteCompare (calL + PWML);
 337              		.loc 1 87 0
 338 0010 7819     		adds	r0, r7, r5
 339 0012 C0B2     		uxtb	r0, r0
 340 0014 FFF7FEFF 		bl	Motorpwm_Left_WriteCompare
 341              	.LVL42:
  88:main.c        **** Motorpwm_right_WriteCompare(calR + PWMR);
 342              		.loc 1 88 0
 343 0018 3019     		adds	r0, r6, r4
 344 001a C0B2     		uxtb	r0, r0
 345 001c FFF7FEFF 		bl	Motorpwm_right_WriteCompare
 346              	.LVL43:
 347 0020 F8BD     		pop	{r3, r4, r5, r6, r7, pc}
 348              		.cfi_endproc
 349              	.LFE69:
 350              		.size	drejHojre, .-drejHojre
 351 0022 00BF     		.text
 352              	.Letext0:
 353              		.file 2 "c:\\program files (x86)\\cypress\\psoc creator\\4.2\\psoc creator\\import\\gnu\\arm\\5.4.
 354              		.file 3 "c:\\program files (x86)\\cypress\\psoc creator\\4.2\\psoc creator\\import\\gnu\\arm\\5.4.
 355              		.file 4 "Generated_Source\\PSoC5/mode.h"
ARM GAS  C:\Users\Chris\AppData\Local\Temp\ccVV10g5.s 			page 9


 356              		.file 5 "Generated_Source\\PSoC5/Motorpwm_Left.h"
 357              		.file 6 "Generated_Source\\PSoC5/Motorpwm_right.h"
 358              		.file 7 "Generated_Source\\PSoC5/Enable_Right.h"
 359              		.file 8 "Generated_Source\\PSoC5/Enable_Left.h"
 360              		.file 9 "Generated_Source\\PSoC5/ADC_calL.h"
 361              		.file 10 "Generated_Source\\PSoC5/ADC_calR.h"
 362              		.file 11 "Generated_Source\\PSoC5/core_cm3.h"