ARM GAS  C:\Users\andre\AppData\Local\Temp\ccdQeMm1.s 			page 1


   1              		.syntax unified
   2              		.cpu cortex-m3
   3              		.fpu softvfp
   4              		.eabi_attribute 20, 1
   5              		.eabi_attribute 21, 1
   6              		.eabi_attribute 23, 3
   7              		.eabi_attribute 24, 1
   8              		.eabi_attribute 25, 1
   9              		.eabi_attribute 26, 1
  10              		.eabi_attribute 30, 1
  11              		.eabi_attribute 34, 1
  12              		.eabi_attribute 18, 4
  13              		.thumb
  14              		.syntax unified
  15              		.file	"main.c"
  16              		.text
  17              	.Ltext0:
  18              		.cfi_sections	.debug_frame
  19              		.section	.text.ISR_SPIS_rx_handler,"ax",%progbits
  20              		.align	2
  21              		.global	ISR_SPIS_rx_handler
  22              		.thumb
  23              		.thumb_func
  24              		.type	ISR_SPIS_rx_handler, %function
  25              	ISR_SPIS_rx_handler:
  26              	.LFB65:
  27              		.file 1 "main.c"
   1:main.c        **** //Include filer 
   2:main.c        **** #include "project.h"
   3:main.c        **** #include "motorStyring.h"
   4:main.c        **** #include "opsamlerStyring.h"
   5:main.c        **** #include "sonarSensor.h" 
   6:main.c        **** #include "stdio.h"
   7:main.c        **** //SPI variabler
   8:main.c        **** #define searchBall_ 0b00000001  //1
   9:main.c        **** #define forwards    0b00000010  //2
  10:main.c        **** #define backwards   0b00000011  //3
  11:main.c        **** #define stop_       0b00000100  //4
  12:main.c        **** #define turn_right  0b00000101  //5
  13:main.c        **** #define turn_left   0b00000110  //6
  14:main.c        **** #define stop_f      0b00000111  //7
  15:main.c        **** #define pickup_down 0b00001000  //8 
  16:main.c        **** #define pickup_up   0b00001001  //9
  17:main.c        **** #define pickup_stop 0b00001010  //10
  18:main.c        **** uint8_t slave_bytesRecieved; //spi read
  19:main.c        **** //motorFunktioner variabler
  20:main.c        **** int calR = 0; 
  21:main.c        **** int calL = 0; 
  22:main.c        **** int PWML = 165; 
  23:main.c        **** int PWMR = 165;
  24:main.c        **** //uart variabler
  25:main.c        **** uint8_t uart_out; // global variable for UART output (for testing) 
  26:main.c        **** //Prototyper
  27:main.c        **** CY_ISR_PROTO(ISR_SPIS_rx_handler);
  28:main.c        **** CY_ISR_PROTO(ISR_UART_rx_handler); 
  29:main.c        **** CY_ISR_PROTO(ISR_I2C_MASTER_rx_handler); 
  30:main.c        **** void slaveBytesRecieve(uint8_t rec);  
ARM GAS  C:\Users\andre\AppData\Local\Temp\ccdQeMm1.s 			page 2


  31:main.c        **** void uart_out_func(uint8_t rec); 
  32:main.c        **** 
  33:main.c        **** int main(void){
  34:main.c        ****     /* Initiering af diverse funktioner, pins, SPI, I2C, UART */
  35:main.c        ****     CyGlobalIntEnable; //Enable global interrupts. 
  36:main.c        ****     SPIS_1_Start(); //Enable SPI
  37:main.c        ****     SPIS_1_FIFO_CLR;
  38:main.c        ****     ISR_SLAVE_RX_StartEx(ISR_SPIS_rx_handler); //enable SPI interrupt
  39:main.c        ****     UART_rx_StartEx(ISR_UART_rx_handler); //Enable Uart (for test purposes)
  40:main.c        ****     UART_1_Start(); //Enable Uart (for test purposes)
  41:main.c        ****     I2C_Master_Start(); //Enable I2C for Sonar module
  42:main.c        ****     stepper_init(); //Initiering af stepper motor
  43:main.c        ****     init_motorFunktioner(); //motorfunktioner initiering
  44:main.c        ****     /* Initiering slut */ 
  45:main.c        ****   
  46:main.c        ****     for(;;){
  47:main.c        ****         //sendData();
  48:main.c        ****         slaveBytesRecieve(slave_bytesRecieved); //spi
  49:main.c        ****         //uart_out_func(uart_out); //uart (for testing)
  50:main.c        ****     }
  51:main.c        **** }
  52:main.c        **** //SPI interrupt 
  53:main.c        **** CY_ISR(ISR_SPIS_rx_handler){
  28              		.loc 1 53 0
  29              		.cfi_startproc
  30              		@ args = 0, pretend = 0, frame = 128
  31              		@ frame_needed = 0, uses_anonymous_args = 0
  32 0000 00B5     		push	{lr}
  33              		.cfi_def_cfa_offset 4
  34              		.cfi_offset 14, -4
  35 0002 A1B0     		sub	sp, sp, #132
  36              		.cfi_def_cfa_offset 136
  54:main.c        ****         slave_bytesRecieved = SPIS_1_ReadRxData(); //Læser dataen fra SPIS rx
  37              		.loc 1 54 0
  38 0004 FFF7FEFF 		bl	SPIS_1_ReadRxData
  39              	.LVL0:
  40 0008 0346     		mov	r3, r0
  41 000a 0B4A     		ldr	r2, .L3
  42 000c 1070     		strb	r0, [r2]
  55:main.c        ****         char buff[128];
  56:main.c        ****         snprintf(buff,sizeof(buff),"Byte received: %d\n",slave_bytesRecieved); //Formaterer data fr
  43              		.loc 1 56 0
  44 000e 0B4A     		ldr	r2, .L3+4
  45 0010 8021     		movs	r1, #128
  46 0012 6846     		mov	r0, sp
  47 0014 FFF7FEFF 		bl	snprintf
  48              	.LVL1:
  57:main.c        ****         UART_1_PutString(buff); //Skriver dataen ud på UART
  49              		.loc 1 57 0
  50 0018 6846     		mov	r0, sp
  51 001a FFF7FEFF 		bl	UART_1_PutString
  52              	.LVL2:
  58:main.c        **** 
  59:main.c        ****         uint8_t num = 75;
  60:main.c        ****         SPIS_1_WriteTxData(num);
  53              		.loc 1 60 0
  54 001e 4B20     		movs	r0, #75
ARM GAS  C:\Users\andre\AppData\Local\Temp\ccdQeMm1.s 			page 3


  55 0020 FFF7FEFF 		bl	SPIS_1_WriteTxData
  56              	.LVL3:
  61:main.c        ****         SPIS_1_ClearFIFO();
  57              		.loc 1 61 0
  58 0024 FFF7FEFF 		bl	SPIS_1_ClearFIFO
  59              	.LVL4:
  62:main.c        ****         //SPIS_1_ClearRxBuffer();
  63:main.c        ****         
  64:main.c        ****         CyDelay(300);
  60              		.loc 1 64 0
  61 0028 4FF49670 		mov	r0, #300
  62 002c FFF7FEFF 		bl	CyDelay
  63              	.LVL5:
  65:main.c        **** }
  64              		.loc 1 65 0
  65 0030 21B0     		add	sp, sp, #132
  66              		.cfi_def_cfa_offset 4
  67              		@ sp needed
  68 0032 5DF804FB 		ldr	pc, [sp], #4
  69              	.L4:
  70 0036 00BF     		.align	2
  71              	.L3:
  72 0038 00000000 		.word	slave_bytesRecieved
  73 003c 00000000 		.word	.LC0
  74              		.cfi_endproc
  75              	.LFE65:
  76              		.size	ISR_SPIS_rx_handler, .-ISR_SPIS_rx_handler
  77              		.section	.text.ISR_UART_rx_handler,"ax",%progbits
  78              		.align	2
  79              		.global	ISR_UART_rx_handler
  80              		.thumb
  81              		.thumb_func
  82              		.type	ISR_UART_rx_handler, %function
  83              	ISR_UART_rx_handler:
  84              	.LFB66:
  66:main.c        **** //I2C interrupt
  67:main.c        **** //CY_ISR(ISR_I2C_Master_rx_handler){
  68:main.c        **** //    sendData();  
  69:main.c        **** //}
  70:main.c        **** 
  71:main.c        **** //UART interrupt (for testing only) 
  72:main.c        **** CY_ISR(ISR_UART_rx_handler){
  85              		.loc 1 72 0
  86              		.cfi_startproc
  87              		@ args = 0, pretend = 0, frame = 0
  88              		@ frame_needed = 0, uses_anonymous_args = 0
  89 0000 10B5     		push	{r4, lr}
  90              		.cfi_def_cfa_offset 8
  91              		.cfi_offset 4, -8
  92              		.cfi_offset 14, -4
  73:main.c        ****     uint8_t bytesToRead = UART_1_GetRxBufferSize();
  93              		.loc 1 73 0
  94 0002 FFF7FEFF 		bl	UART_1_GetRxBufferSize
  95              	.LVL6:
  96 0006 0446     		mov	r4, r0
  97              	.LVL7:
  74:main.c        ****     while (bytesToRead > 0)
ARM GAS  C:\Users\andre\AppData\Local\Temp\ccdQeMm1.s 			page 4


  98              		.loc 1 74 0
  99 0008 07E0     		b	.L6
 100              	.L7:
  75:main.c        ****     {
  76:main.c        ****         uart_out = UART_1_ReadRxData();
 101              		.loc 1 76 0
 102 000a FFF7FEFF 		bl	UART_1_ReadRxData
 103              	.LVL8:
 104 000e 044B     		ldr	r3, .L9
 105 0010 1870     		strb	r0, [r3]
  77:main.c        ****         UART_1_WriteTxData(uart_out); // echo back
 106              		.loc 1 77 0
 107 0012 FFF7FEFF 		bl	UART_1_WriteTxData
 108              	.LVL9:
  78:main.c        ****         
  79:main.c        ****         bytesToRead--;
 109              		.loc 1 79 0
 110 0016 013C     		subs	r4, r4, #1
 111              	.LVL10:
 112 0018 E4B2     		uxtb	r4, r4
 113              	.LVL11:
 114              	.L6:
  74:main.c        ****     {
 115              		.loc 1 74 0
 116 001a 002C     		cmp	r4, #0
 117 001c F5D1     		bne	.L7
  80:main.c        ****          
  81:main.c        ****     }
  82:main.c        **** }
 118              		.loc 1 82 0
 119 001e 10BD     		pop	{r4, pc}
 120              	.LVL12:
 121              	.L10:
 122              		.align	2
 123              	.L9:
 124 0020 00000000 		.word	uart_out
 125              		.cfi_endproc
 126              	.LFE66:
 127              		.size	ISR_UART_rx_handler, .-ISR_UART_rx_handler
 128              		.section	.text.slaveBytesRecieve,"ax",%progbits
 129              		.align	2
 130              		.global	slaveBytesRecieve
 131              		.thumb
 132              		.thumb_func
 133              		.type	slaveBytesRecieve, %function
 134              	slaveBytesRecieve:
 135              	.LFB67:
  83:main.c        **** //Switch case for spi 
  84:main.c        **** void slaveBytesRecieve(uint8_t rec){
 136              		.loc 1 84 0
 137              		.cfi_startproc
 138              		@ args = 0, pretend = 0, frame = 0
 139              		@ frame_needed = 0, uses_anonymous_args = 0
 140              	.LVL13:
 141 0000 08B5     		push	{r3, lr}
 142              		.cfi_def_cfa_offset 8
 143              		.cfi_offset 3, -8
ARM GAS  C:\Users\andre\AppData\Local\Temp\ccdQeMm1.s 			page 5


 144              		.cfi_offset 14, -4
  85:main.c        ****     switch(rec){ 
 145              		.loc 1 85 0
 146 0002 0138     		subs	r0, r0, #1
 147              	.LVL14:
 148 0004 0928     		cmp	r0, #9
 149 0006 41D8     		bhi	.L11
 150 0008 DFE800F0 		tbb	[pc, r0]
 151              	.L14:
 152 000c 05       		.byte	(.L13-.L14)/2
 153 000d 0E       		.byte	(.L15-.L14)/2
 154 000e 17       		.byte	(.L16-.L14)/2
 155 000f 30       		.byte	(.L17-.L14)/2
 156 0010 28       		.byte	(.L18-.L14)/2
 157 0011 20       		.byte	(.L19-.L14)/2
 158 0012 33       		.byte	(.L20-.L14)/2
 159 0013 36       		.byte	(.L21-.L14)/2
 160 0014 3A       		.byte	(.L22-.L14)/2
 161 0015 3E       		.byte	(.L23-.L14)/2
 162              		.p2align 1
 163              	.L13:
  86:main.c        ****         case searchBall_: 
  87:main.c        ****         {
  88:main.c        ****             searchBall(calL, calR, PWML, PWMR);   
 164              		.loc 1 88 0
 165 0016 1E4A     		ldr	r2, .L25
 166 0018 1E48     		ldr	r0, .L25+4
 167 001a 1368     		ldr	r3, [r2]
 168 001c 5268     		ldr	r2, [r2, #4]
 169 001e 0168     		ldr	r1, [r0]
 170 0020 4068     		ldr	r0, [r0, #4]
 171 0022 FFF7FEFF 		bl	searchBall
 172              	.LVL15:
  89:main.c        ****         }
  90:main.c        ****         break; 
 173              		.loc 1 90 0
 174 0026 08BD     		pop	{r3, pc}
 175              	.L15:
  91:main.c        ****         case forwards:
  92:main.c        ****         {
  93:main.c        ****             korFrem(10, calR, PWML, PWMR);
 176              		.loc 1 93 0
 177 0028 194A     		ldr	r2, .L25
 178 002a 1368     		ldr	r3, [r2]
 179 002c 5268     		ldr	r2, [r2, #4]
 180 002e 1949     		ldr	r1, .L25+4
 181 0030 0968     		ldr	r1, [r1]
 182 0032 0A20     		movs	r0, #10
 183 0034 FFF7FEFF 		bl	korFrem
 184              	.LVL16:
  94:main.c        ****         }
  95:main.c        ****         break;
 185              		.loc 1 95 0
 186 0038 08BD     		pop	{r3, pc}
 187              	.L16:
  96:main.c        ****         case backwards:
  97:main.c        ****         {
ARM GAS  C:\Users\andre\AppData\Local\Temp\ccdQeMm1.s 			page 6


  98:main.c        ****             korTilbage(calL, calR, PWML, PWMR);
 188              		.loc 1 98 0
 189 003a 154A     		ldr	r2, .L25
 190 003c 1548     		ldr	r0, .L25+4
 191 003e 1368     		ldr	r3, [r2]
 192 0040 5268     		ldr	r2, [r2, #4]
 193 0042 0168     		ldr	r1, [r0]
 194 0044 4068     		ldr	r0, [r0, #4]
 195 0046 FFF7FEFF 		bl	korTilbage
 196              	.LVL17:
  99:main.c        ****         }
 100:main.c        ****         break;
 197              		.loc 1 100 0
 198 004a 08BD     		pop	{r3, pc}
 199              	.L19:
 101:main.c        ****         case turn_left:
 102:main.c        ****         {
 103:main.c        ****             drejVenstre(calL, calR, 0, 170);  
 200              		.loc 1 103 0
 201 004c 1148     		ldr	r0, .L25+4
 202 004e AA23     		movs	r3, #170
 203 0050 0022     		movs	r2, #0
 204 0052 0168     		ldr	r1, [r0]
 205 0054 4068     		ldr	r0, [r0, #4]
 206 0056 FFF7FEFF 		bl	drejVenstre
 207              	.LVL18:
 104:main.c        ****         }
 105:main.c        ****         break;
 208              		.loc 1 105 0
 209 005a 08BD     		pop	{r3, pc}
 210              	.L18:
 106:main.c        ****         case turn_right:
 107:main.c        ****         {
 108:main.c        ****             drejHojre(calL, calR, 170, 0); 
 211              		.loc 1 108 0
 212 005c 0D48     		ldr	r0, .L25+4
 213 005e 0023     		movs	r3, #0
 214 0060 AA22     		movs	r2, #170
 215 0062 0168     		ldr	r1, [r0]
 216 0064 4068     		ldr	r0, [r0, #4]
 217 0066 FFF7FEFF 		bl	drejHojre
 218              	.LVL19:
 109:main.c        ****         }
 110:main.c        ****         break;
 219              		.loc 1 110 0
 220 006a 08BD     		pop	{r3, pc}
 221              	.L17:
 111:main.c        ****         case stop_:
 112:main.c        ****         {
 113:main.c        ****             stop();
 222              		.loc 1 113 0
 223 006c FFF7FEFF 		bl	stop
 224              	.LVL20:
 114:main.c        ****         }
 115:main.c        ****         break;
 225              		.loc 1 115 0
 226 0070 08BD     		pop	{r3, pc}
ARM GAS  C:\Users\andre\AppData\Local\Temp\ccdQeMm1.s 			page 7


 227              	.L20:
 116:main.c        ****         case stop_f:
 117:main.c        ****         {
 118:main.c        ****             fastStop();
 228              		.loc 1 118 0
 229 0072 FFF7FEFF 		bl	fastStop
 230              	.LVL21:
 119:main.c        ****         }
 120:main.c        ****         break;
 231              		.loc 1 120 0
 232 0076 08BD     		pop	{r3, pc}
 233              	.L21:
 121:main.c        ****         case pickup_down: 
 122:main.c        ****         {
 123:main.c        ****    
 124:main.c        ****             stepper_down(12); 
 234              		.loc 1 124 0
 235 0078 0C20     		movs	r0, #12
 236 007a FFF7FEFF 		bl	stepper_down
 237              	.LVL22:
 125:main.c        ****         }
 126:main.c        ****         break;
 238              		.loc 1 126 0
 239 007e 08BD     		pop	{r3, pc}
 240              	.L22:
 127:main.c        ****          case pickup_up: 
 128:main.c        ****         {
 129:main.c        ****             stepper_up(12); 
 241              		.loc 1 129 0
 242 0080 0C20     		movs	r0, #12
 243 0082 FFF7FEFF 		bl	stepper_up
 244              	.LVL23:
 130:main.c        ****         }
 131:main.c        ****         break;
 245              		.loc 1 131 0
 246 0086 08BD     		pop	{r3, pc}
 247              	.L23:
 132:main.c        ****          case pickup_stop: 
 133:main.c        ****         {
 134:main.c        ****             stepper_stop(); 
 248              		.loc 1 134 0
 249 0088 FFF7FEFF 		bl	stepper_stop
 250              	.LVL24:
 251              	.L11:
 252 008c 08BD     		pop	{r3, pc}
 253              	.L26:
 254 008e 00BF     		.align	2
 255              	.L25:
 256 0090 00000000 		.word	.LANCHOR0
 257 0094 00000000 		.word	.LANCHOR1
 258              		.cfi_endproc
 259              	.LFE67:
 260              		.size	slaveBytesRecieve, .-slaveBytesRecieve
 261              		.section	.text.main,"ax",%progbits
 262              		.align	2
 263              		.global	main
 264              		.thumb
ARM GAS  C:\Users\andre\AppData\Local\Temp\ccdQeMm1.s 			page 8


 265              		.thumb_func
 266              		.type	main, %function
 267              	main:
 268              	.LFB64:
  33:main.c        ****     /* Initiering af diverse funktioner, pins, SPI, I2C, UART */
 269              		.loc 1 33 0
 270              		.cfi_startproc
 271              		@ Volatile: function does not return.
 272              		@ args = 0, pretend = 0, frame = 0
 273              		@ frame_needed = 0, uses_anonymous_args = 0
 274 0000 08B5     		push	{r3, lr}
 275              		.cfi_def_cfa_offset 8
 276              		.cfi_offset 3, -8
 277              		.cfi_offset 14, -4
  35:main.c        ****     SPIS_1_Start(); //Enable SPI
 278              		.loc 1 35 0
 279              		.syntax unified
 280              	@ 35 "main.c" 1
 281 0002 62B6     		CPSIE   i
 282              	@ 0 "" 2
  36:main.c        ****     SPIS_1_FIFO_CLR;
 283              		.loc 1 36 0
 284              		.thumb
 285              		.syntax unified
 286 0004 FFF7FEFF 		bl	SPIS_1_Start
 287              	.LVL25:
  38:main.c        ****     UART_rx_StartEx(ISR_UART_rx_handler); //Enable Uart (for test purposes)
 288              		.loc 1 38 0
 289 0008 0948     		ldr	r0, .L30
 290 000a FFF7FEFF 		bl	ISR_SLAVE_RX_StartEx
 291              	.LVL26:
  39:main.c        ****     UART_1_Start(); //Enable Uart (for test purposes)
 292              		.loc 1 39 0
 293 000e 0948     		ldr	r0, .L30+4
 294 0010 FFF7FEFF 		bl	UART_rx_StartEx
 295              	.LVL27:
  40:main.c        ****     I2C_Master_Start(); //Enable I2C for Sonar module
 296              		.loc 1 40 0
 297 0014 FFF7FEFF 		bl	UART_1_Start
 298              	.LVL28:
  41:main.c        ****     stepper_init(); //Initiering af stepper motor
 299              		.loc 1 41 0
 300 0018 FFF7FEFF 		bl	I2C_Master_Start
 301              	.LVL29:
  42:main.c        ****     init_motorFunktioner(); //motorfunktioner initiering
 302              		.loc 1 42 0
 303 001c FFF7FEFF 		bl	stepper_init
 304              	.LVL30:
  43:main.c        ****     /* Initiering slut */ 
 305              		.loc 1 43 0
 306 0020 FFF7FEFF 		bl	init_motorFunktioner
 307              	.LVL31:
 308              	.L28:
  48:main.c        ****         //uart_out_func(uart_out); //uart (for testing)
 309              		.loc 1 48 0 discriminator 1
 310 0024 044B     		ldr	r3, .L30+8
 311 0026 1878     		ldrb	r0, [r3]	@ zero_extendqisi2
ARM GAS  C:\Users\andre\AppData\Local\Temp\ccdQeMm1.s 			page 9


 312 0028 FFF7FEFF 		bl	slaveBytesRecieve
 313              	.LVL32:
 314 002c FAE7     		b	.L28
 315              	.L31:
 316 002e 00BF     		.align	2
 317              	.L30:
 318 0030 00000000 		.word	ISR_SPIS_rx_handler
 319 0034 00000000 		.word	ISR_UART_rx_handler
 320 0038 00000000 		.word	slave_bytesRecieved
 321              		.cfi_endproc
 322              	.LFE64:
 323              		.size	main, .-main
 324              		.section	.text.uart_out_func,"ax",%progbits
 325              		.align	2
 326              		.global	uart_out_func
 327              		.thumb
 328              		.thumb_func
 329              		.type	uart_out_func, %function
 330              	uart_out_func:
 331              	.LFB68:
 135:main.c        ****           
 136:main.c        ****         }
 137:main.c        ****         break;
 138:main.c        ****         default: 
 139:main.c        ****         {}
 140:main.c        ****         break; 
 141:main.c        ****     }
 142:main.c        **** }
 143:main.c        **** 
 144:main.c        **** //switch case for uart (only for testing) 
 145:main.c        **** void uart_out_func(uint8_t rec){
 332              		.loc 1 145 0
 333              		.cfi_startproc
 334              		@ args = 0, pretend = 0, frame = 0
 335              		@ frame_needed = 0, uses_anonymous_args = 0
 336              	.LVL33:
 337 0000 08B5     		push	{r3, lr}
 338              		.cfi_def_cfa_offset 8
 339              		.cfi_offset 3, -8
 340              		.cfi_offset 14, -4
 146:main.c        ****     switch(rec){ 
 341              		.loc 1 146 0
 342 0002 3138     		subs	r0, r0, #49
 343              	.LVL34:
 344 0004 3028     		cmp	r0, #48
 345 0006 55D8     		bhi	.L32
 346 0008 DFE800F0 		tbb	[pc, r0]
 347              	.L35:
 348 000c 19       		.byte	(.L34-.L35)/2
 349 000d 22       		.byte	(.L36-.L35)/2
 350 000e 2B       		.byte	(.L37-.L35)/2
 351 000f 34       		.byte	(.L38-.L35)/2
 352 0010 37       		.byte	(.L39-.L35)/2
 353 0011 3F       		.byte	(.L40-.L35)/2
 354 0012 47       		.byte	(.L41-.L35)/2
 355 0013 4A       		.byte	(.L42-.L35)/2
 356 0014 4E       		.byte	(.L43-.L35)/2
ARM GAS  C:\Users\andre\AppData\Local\Temp\ccdQeMm1.s 			page 10


 357 0015 54       		.byte	(.L32-.L35)/2
 358 0016 54       		.byte	(.L32-.L35)/2
 359 0017 54       		.byte	(.L32-.L35)/2
 360 0018 54       		.byte	(.L32-.L35)/2
 361 0019 54       		.byte	(.L32-.L35)/2
 362 001a 54       		.byte	(.L32-.L35)/2
 363 001b 54       		.byte	(.L32-.L35)/2
 364 001c 54       		.byte	(.L32-.L35)/2
 365 001d 54       		.byte	(.L32-.L35)/2
 366 001e 54       		.byte	(.L32-.L35)/2
 367 001f 54       		.byte	(.L32-.L35)/2
 368 0020 54       		.byte	(.L32-.L35)/2
 369 0021 54       		.byte	(.L32-.L35)/2
 370 0022 54       		.byte	(.L32-.L35)/2
 371 0023 54       		.byte	(.L32-.L35)/2
 372 0024 54       		.byte	(.L32-.L35)/2
 373 0025 54       		.byte	(.L32-.L35)/2
 374 0026 54       		.byte	(.L32-.L35)/2
 375 0027 54       		.byte	(.L32-.L35)/2
 376 0028 54       		.byte	(.L32-.L35)/2
 377 0029 54       		.byte	(.L32-.L35)/2
 378 002a 54       		.byte	(.L32-.L35)/2
 379 002b 54       		.byte	(.L32-.L35)/2
 380 002c 54       		.byte	(.L32-.L35)/2
 381 002d 54       		.byte	(.L32-.L35)/2
 382 002e 54       		.byte	(.L32-.L35)/2
 383 002f 54       		.byte	(.L32-.L35)/2
 384 0030 54       		.byte	(.L32-.L35)/2
 385 0031 54       		.byte	(.L32-.L35)/2
 386 0032 54       		.byte	(.L32-.L35)/2
 387 0033 54       		.byte	(.L32-.L35)/2
 388 0034 54       		.byte	(.L32-.L35)/2
 389 0035 54       		.byte	(.L32-.L35)/2
 390 0036 54       		.byte	(.L32-.L35)/2
 391 0037 54       		.byte	(.L32-.L35)/2
 392 0038 54       		.byte	(.L32-.L35)/2
 393 0039 54       		.byte	(.L32-.L35)/2
 394 003a 54       		.byte	(.L32-.L35)/2
 395 003b 54       		.byte	(.L32-.L35)/2
 396 003c 52       		.byte	(.L44-.L35)/2
 397 003d 00       		.p2align 1
 398              	.L34:
 147:main.c        ****         case '1': 
 148:main.c        ****             {
 149:main.c        ****                searchBall(calL, calR, PWML, PWMR);  
 399              		.loc 1 149 0
 400 003e 1E4A     		ldr	r2, .L46
 401 0040 1E48     		ldr	r0, .L46+4
 402 0042 1368     		ldr	r3, [r2]
 403 0044 5268     		ldr	r2, [r2, #4]
 404 0046 0168     		ldr	r1, [r0]
 405 0048 4068     		ldr	r0, [r0, #4]
 406 004a FFF7FEFF 		bl	searchBall
 407              	.LVL35:
 150:main.c        ****             }
 151:main.c        ****             break; 
 408              		.loc 1 151 0
ARM GAS  C:\Users\andre\AppData\Local\Temp\ccdQeMm1.s 			page 11


 409 004e 08BD     		pop	{r3, pc}
 410              	.L36:
 152:main.c        ****         case '2': 
 153:main.c        ****             {
 154:main.c        ****                korFrem(calL, calR, PWML, PWMR); 
 411              		.loc 1 154 0
 412 0050 194A     		ldr	r2, .L46
 413 0052 1A48     		ldr	r0, .L46+4
 414 0054 1368     		ldr	r3, [r2]
 415 0056 5268     		ldr	r2, [r2, #4]
 416 0058 0168     		ldr	r1, [r0]
 417 005a 4068     		ldr	r0, [r0, #4]
 418 005c FFF7FEFF 		bl	korFrem
 419              	.LVL36:
 155:main.c        ****             }
 156:main.c        ****             break;
 420              		.loc 1 156 0
 421 0060 08BD     		pop	{r3, pc}
 422              	.L37:
 157:main.c        ****         case '3': 
 158:main.c        ****             {
 159:main.c        ****                korTilbage(calL, calR, PWML, PWMR);  
 423              		.loc 1 159 0
 424 0062 154A     		ldr	r2, .L46
 425 0064 1548     		ldr	r0, .L46+4
 426 0066 1368     		ldr	r3, [r2]
 427 0068 5268     		ldr	r2, [r2, #4]
 428 006a 0168     		ldr	r1, [r0]
 429 006c 4068     		ldr	r0, [r0, #4]
 430 006e FFF7FEFF 		bl	korTilbage
 431              	.LVL37:
 160:main.c        ****             }
 161:main.c        ****             break;
 432              		.loc 1 161 0
 433 0072 08BD     		pop	{r3, pc}
 434              	.L38:
 162:main.c        ****         case '4': 
 163:main.c        ****             {
 164:main.c        ****                stop();  
 435              		.loc 1 164 0
 436 0074 FFF7FEFF 		bl	stop
 437              	.LVL38:
 165:main.c        ****             }
 166:main.c        ****             break;
 438              		.loc 1 166 0
 439 0078 08BD     		pop	{r3, pc}
 440              	.L39:
 167:main.c        ****         case '5': 
 168:main.c        ****             {
 169:main.c        ****                drejHojre(calL, calR, 175, 0);  
 441              		.loc 1 169 0
 442 007a 1048     		ldr	r0, .L46+4
 443 007c 0023     		movs	r3, #0
 444 007e AF22     		movs	r2, #175
 445 0080 0168     		ldr	r1, [r0]
 446 0082 4068     		ldr	r0, [r0, #4]
 447 0084 FFF7FEFF 		bl	drejHojre
ARM GAS  C:\Users\andre\AppData\Local\Temp\ccdQeMm1.s 			page 12


 448              	.LVL39:
 170:main.c        ****             }
 171:main.c        ****             break;
 449              		.loc 1 171 0
 450 0088 08BD     		pop	{r3, pc}
 451              	.L40:
 172:main.c        ****          case '6': 
 173:main.c        ****             {
 174:main.c        ****                drejVenstre(calL, calR, 0, 170); 
 452              		.loc 1 174 0
 453 008a 0C48     		ldr	r0, .L46+4
 454 008c AA23     		movs	r3, #170
 455 008e 0022     		movs	r2, #0
 456 0090 0168     		ldr	r1, [r0]
 457 0092 4068     		ldr	r0, [r0, #4]
 458 0094 FFF7FEFF 		bl	drejVenstre
 459              	.LVL40:
 175:main.c        ****             }
 176:main.c        ****             break;
 460              		.loc 1 176 0
 461 0098 08BD     		pop	{r3, pc}
 462              	.L41:
 177:main.c        ****         case '7': 
 178:main.c        ****             {
 179:main.c        ****                fastStop();  
 463              		.loc 1 179 0
 464 009a FFF7FEFF 		bl	fastStop
 465              	.LVL41:
 180:main.c        ****             }
 181:main.c        ****             break;
 466              		.loc 1 181 0
 467 009e 08BD     		pop	{r3, pc}
 468              	.L42:
 182:main.c        ****         case '8': 
 183:main.c        ****             {
 184:main.c        ****                stepper_down(12); 
 469              		.loc 1 184 0
 470 00a0 0C20     		movs	r0, #12
 471 00a2 FFF7FEFF 		bl	stepper_down
 472              	.LVL42:
 185:main.c        ****             }
 186:main.c        ****             break;
 473              		.loc 1 186 0
 474 00a6 08BD     		pop	{r3, pc}
 475              	.L43:
 187:main.c        ****         case '9': 
 188:main.c        ****             {
 189:main.c        ****                stepper_up(12); 
 476              		.loc 1 189 0
 477 00a8 0C20     		movs	r0, #12
 478 00aa FFF7FEFF 		bl	stepper_up
 479              	.LVL43:
 190:main.c        ****             }
 191:main.c        ****             break;
 480              		.loc 1 191 0
 481 00ae 08BD     		pop	{r3, pc}
 482              	.L44:
ARM GAS  C:\Users\andre\AppData\Local\Temp\ccdQeMm1.s 			page 13


 192:main.c        ****              case 'a': 
 193:main.c        ****             {
 194:main.c        ****                stepper_stop(); 
 483              		.loc 1 194 0
 484 00b0 FFF7FEFF 		bl	stepper_stop
 485              	.LVL44:
 486              	.L32:
 487 00b4 08BD     		pop	{r3, pc}
 488              	.L47:
 489 00b6 00BF     		.align	2
 490              	.L46:
 491 00b8 00000000 		.word	.LANCHOR0
 492 00bc 00000000 		.word	.LANCHOR1
 493              		.cfi_endproc
 494              	.LFE68:
 495              		.size	uart_out_func, .-uart_out_func
 496              		.comm	uart_out,1,1
 497              		.global	PWMR
 498              		.global	PWML
 499              		.global	calL
 500              		.global	calR
 501              		.comm	slave_bytesRecieved,1,1
 502              		.data
 503              		.align	2
 504              		.set	.LANCHOR0,. + 0
 505              		.type	PWMR, %object
 506              		.size	PWMR, 4
 507              	PWMR:
 508 0000 A5000000 		.word	165
 509              		.type	PWML, %object
 510              		.size	PWML, 4
 511              	PWML:
 512 0004 A5000000 		.word	165
 513              		.section	.rodata.str1.4,"aMS",%progbits,1
 514              		.align	2
 515              	.LC0:
 516 0000 42797465 		.ascii	"Byte received: %d\012\000"
 516      20726563 
 516      65697665 
 516      643A2025 
 516      640A00
 517              		.bss
 518              		.align	2
 519              		.set	.LANCHOR1,. + 0
 520              		.type	calR, %object
 521              		.size	calR, 4
 522              	calR:
 523 0000 00000000 		.space	4
 524              		.type	calL, %object
 525              		.size	calL, 4
 526              	calL:
 527 0004 00000000 		.space	4
 528              		.text
 529              	.Letext0:
 530              		.file 2 "c:\\program files (x86)\\cypress\\psoc creator\\4.2\\psoc creator\\import\\gnu\\arm\\5.4.
 531              		.file 3 "c:\\program files (x86)\\cypress\\psoc creator\\4.2\\psoc creator\\import\\gnu\\arm\\5.4.
 532              		.file 4 "Generated_Source\\PSoC5/core_cm3.h"
ARM GAS  C:\Users\andre\AppData\Local\Temp\ccdQeMm1.s 			page 14


 533              		.file 5 "Generated_Source\\PSoC5/SPIS_1.h"
 534              		.file 6 "c:\\program files (x86)\\cypress\\psoc creator\\4.2\\psoc creator\\import\\gnu\\arm\\5.4.
 535              		.file 7 "Generated_Source\\PSoC5/UART_1.h"
 536              		.file 8 "Generated_Source\\PSoC5/CyLib.h"
 537              		.file 9 "motorStyring.h"
 538              		.file 10 "opsamlerStyring.h"
 539              		.file 11 "Generated_Source\\PSoC5/ISR_SLAVE_RX.h"
 540              		.file 12 "Generated_Source\\PSoC5/UART_rx.h"
 541              		.file 13 "Generated_Source\\PSoC5/I2C_Master.h"