ARM GAS  C:\Users\andre\AppData\Local\Temp\cc4dXyt7.s 			page 1


   1              		.syntax unified
   2              		.cpu cortex-m3
   3              		.fpu softvfp
   4              		.eabi_attribute 20, 1
   5              		.eabi_attribute 21, 1
   6              		.eabi_attribute 23, 3
   7              		.eabi_attribute 24, 1
   8              		.eabi_attribute 25, 1
   9              		.eabi_attribute 26, 1
  10              		.eabi_attribute 30, 1
  11              		.eabi_attribute 34, 1
  12              		.eabi_attribute 18, 4
  13              		.thumb
  14              		.syntax unified
  15              		.file	"pickup.c"
  16              		.text
  17              	.Ltext0:
  18              		.cfi_sections	.debug_frame
  19              		.section	.text.step_init,"ax",%progbits
  20              		.align	2
  21              		.global	step_init
  22              		.thumb
  23              		.thumb_func
  24              		.type	step_init, %function
  25              	step_init:
  26              	.LFB63:
  27              		.file 1 "pickup.c"
   1:pickup.c      **** #include "project.h"
   2:pickup.c      **** #include "pickup.h"
   3:pickup.c      **** 
   4:pickup.c      **** void step_init() {
  28              		.loc 1 4 0
  29              		.cfi_startproc
  30              		@ args = 0, pretend = 0, frame = 0
  31              		@ frame_needed = 0, uses_anonymous_args = 0
  32 0000 10B5     		push	{r4, lr}
  33              		.cfi_def_cfa_offset 8
  34              		.cfi_offset 4, -8
  35              		.cfi_offset 14, -4
   5:pickup.c      **** M1_Write(1);
  36              		.loc 1 5 0
  37 0002 0120     		movs	r0, #1
  38 0004 FFF7FEFF 		bl	M1_Write
  39              	.LVL0:
   6:pickup.c      **** M2_Write(1);
  40              		.loc 1 6 0
  41 0008 0120     		movs	r0, #1
  42 000a FFF7FEFF 		bl	M2_Write
  43              	.LVL1:
   7:pickup.c      **** PFD_Write(1);
  44              		.loc 1 7 0
  45 000e 0120     		movs	r0, #1
  46 0010 FFF7FEFF 		bl	PFD_Write
  47              	.LVL2:
   8:pickup.c      **** Sleep_Write(1);
  48              		.loc 1 8 0
  49 0014 0120     		movs	r0, #1
ARM GAS  C:\Users\andre\AppData\Local\Temp\cc4dXyt7.s 			page 2


  50 0016 FFF7FEFF 		bl	Sleep_Write
  51              	.LVL3:
   9:pickup.c      **** Reset_Write(1);
  52              		.loc 1 9 0
  53 001a 0120     		movs	r0, #1
  54 001c FFF7FEFF 		bl	Reset_Write
  55              	.LVL4:
  10:pickup.c      **** Enable_Write(0);
  56              		.loc 1 10 0
  57 0020 0020     		movs	r0, #0
  58 0022 FFF7FEFF 		bl	Enable_Write
  59              	.LVL5:
  11:pickup.c      **** DIR_Write(0);
  60              		.loc 1 11 0
  61 0026 0020     		movs	r0, #0
  62 0028 FFF7FEFF 		bl	DIR_Write
  63              	.LVL6:
  64              	.LBB2:
  12:pickup.c      ****  for(int i = 0; i<=500; i++)
  65              		.loc 1 12 0
  66 002c 0024     		movs	r4, #0
  67 002e 0CE0     		b	.L2
  68              	.LVL7:
  69              	.L3:
  13:pickup.c      ****     {
  14:pickup.c      ****       Steps_Write(1);
  70              		.loc 1 14 0 discriminator 3
  71 0030 0120     		movs	r0, #1
  72 0032 FFF7FEFF 		bl	Steps_Write
  73              	.LVL8:
  15:pickup.c      ****       CyDelay(1);
  74              		.loc 1 15 0 discriminator 3
  75 0036 0120     		movs	r0, #1
  76 0038 FFF7FEFF 		bl	CyDelay
  77              	.LVL9:
  16:pickup.c      ****       Steps_Write(0);
  78              		.loc 1 16 0 discriminator 3
  79 003c 0020     		movs	r0, #0
  80 003e FFF7FEFF 		bl	Steps_Write
  81              	.LVL10:
  17:pickup.c      ****       CyDelay(1);
  82              		.loc 1 17 0 discriminator 3
  83 0042 0120     		movs	r0, #1
  84 0044 FFF7FEFF 		bl	CyDelay
  85              	.LVL11:
  12:pickup.c      ****     {
  86              		.loc 1 12 0 discriminator 3
  87 0048 0134     		adds	r4, r4, #1
  88              	.LVL12:
  89              	.L2:
  12:pickup.c      ****     {
  90              		.loc 1 12 0 is_stmt 0 discriminator 1
  91 004a B4F5FA7F 		cmp	r4, #500
  92 004e EFDD     		ble	.L3
  93              	.LBE2:
  18:pickup.c      ****     }
  19:pickup.c      **** }
ARM GAS  C:\Users\andre\AppData\Local\Temp\cc4dXyt7.s 			page 3


  94              		.loc 1 19 0 is_stmt 1
  95 0050 10BD     		pop	{r4, pc}
  96              		.cfi_endproc
  97              	.LFE63:
  98              		.size	step_init, .-step_init
  99 0052 00BF     		.section	.text.pickUp,"ax",%progbits
 100              		.align	2
 101              		.global	pickUp
 102              		.thumb
 103              		.thumb_func
 104              		.type	pickUp, %function
 105              	pickUp:
 106              	.LFB64:
  20:pickup.c      **** 
  21:pickup.c      **** void pickUp() {
 107              		.loc 1 21 0
 108              		.cfi_startproc
 109              		@ args = 0, pretend = 0, frame = 0
 110              		@ frame_needed = 0, uses_anonymous_args = 0
 111 0000 10B5     		push	{r4, lr}
 112              		.cfi_def_cfa_offset 8
 113              		.cfi_offset 4, -8
 114              		.cfi_offset 14, -4
  22:pickup.c      **** DIR_Write(1);    
 115              		.loc 1 22 0
 116 0002 0120     		movs	r0, #1
 117 0004 FFF7FEFF 		bl	DIR_Write
 118              	.LVL13:
 119              	.LBB3:
  23:pickup.c      ****  for(int i = 0; i<=500; i++)
 120              		.loc 1 23 0
 121 0008 0024     		movs	r4, #0
 122 000a 0CE0     		b	.L6
 123              	.LVL14:
 124              	.L7:
  24:pickup.c      ****     {
  25:pickup.c      ****     Steps_Write(1);
 125              		.loc 1 25 0 discriminator 3
 126 000c 0120     		movs	r0, #1
 127 000e FFF7FEFF 		bl	Steps_Write
 128              	.LVL15:
  26:pickup.c      ****     CyDelay(1);
 129              		.loc 1 26 0 discriminator 3
 130 0012 0120     		movs	r0, #1
 131 0014 FFF7FEFF 		bl	CyDelay
 132              	.LVL16:
  27:pickup.c      ****     Steps_Write(0);
 133              		.loc 1 27 0 discriminator 3
 134 0018 0020     		movs	r0, #0
 135 001a FFF7FEFF 		bl	Steps_Write
 136              	.LVL17:
  28:pickup.c      ****     CyDelay(1);
 137              		.loc 1 28 0 discriminator 3
 138 001e 0120     		movs	r0, #1
 139 0020 FFF7FEFF 		bl	CyDelay
 140              	.LVL18:
  23:pickup.c      ****     {
ARM GAS  C:\Users\andre\AppData\Local\Temp\cc4dXyt7.s 			page 4


 141              		.loc 1 23 0 discriminator 3
 142 0024 0134     		adds	r4, r4, #1
 143              	.LVL19:
 144              	.L6:
  23:pickup.c      ****     {
 145              		.loc 1 23 0 is_stmt 0 discriminator 1
 146 0026 B4F5FA7F 		cmp	r4, #500
 147 002a EFDD     		ble	.L7
 148              	.LBE3:
  29:pickup.c      ****     }
  30:pickup.c      **** 
  31:pickup.c      ****  DIR_Write(0);
 149              		.loc 1 31 0 is_stmt 1
 150 002c 0020     		movs	r0, #0
 151 002e FFF7FEFF 		bl	DIR_Write
 152              	.LVL20:
 153              	.LBB4:
  32:pickup.c      ****  for(int i = 0; i<=500; i++)
 154              		.loc 1 32 0
 155 0032 0024     		movs	r4, #0
 156              	.LVL21:
 157 0034 0CE0     		b	.L8
 158              	.LVL22:
 159              	.L9:
  33:pickup.c      ****     {
  34:pickup.c      ****       Steps_Write(1);
 160              		.loc 1 34 0 discriminator 3
 161 0036 0120     		movs	r0, #1
 162 0038 FFF7FEFF 		bl	Steps_Write
 163              	.LVL23:
  35:pickup.c      ****       CyDelay(1);
 164              		.loc 1 35 0 discriminator 3
 165 003c 0120     		movs	r0, #1
 166 003e FFF7FEFF 		bl	CyDelay
 167              	.LVL24:
  36:pickup.c      ****       Steps_Write(0);
 168              		.loc 1 36 0 discriminator 3
 169 0042 0020     		movs	r0, #0
 170 0044 FFF7FEFF 		bl	Steps_Write
 171              	.LVL25:
  37:pickup.c      ****       CyDelay(1);
 172              		.loc 1 37 0 discriminator 3
 173 0048 0120     		movs	r0, #1
 174 004a FFF7FEFF 		bl	CyDelay
 175              	.LVL26:
  32:pickup.c      ****     {
 176              		.loc 1 32 0 discriminator 3
 177 004e 0134     		adds	r4, r4, #1
 178              	.LVL27:
 179              	.L8:
  32:pickup.c      ****     {
 180              		.loc 1 32 0 is_stmt 0 discriminator 1
 181 0050 B4F5FA7F 		cmp	r4, #500
 182 0054 EFDD     		ble	.L9
 183              	.LBE4:
  38:pickup.c      ****     }
  39:pickup.c      **** }
ARM GAS  C:\Users\andre\AppData\Local\Temp\cc4dXyt7.s 			page 5


 184              		.loc 1 39 0 is_stmt 1
 185 0056 10BD     		pop	{r4, pc}
 186              		.cfi_endproc
 187              	.LFE64:
 188              		.size	pickUp, .-pickUp
 189              		.text
 190              	.Letext0:
 191              		.file 2 "c:\\program files (x86)\\cypress\\psoc creator\\4.2\\psoc creator\\import\\gnu\\arm\\5.4.
 192              		.file 3 "c:\\program files (x86)\\cypress\\psoc creator\\4.2\\psoc creator\\import\\gnu\\arm\\5.4.
 193              		.file 4 "Generated_Source\\PSoC5/Steps.h"
 194              		.file 5 "Generated_Source\\PSoC5/CyLib.h"
 195              		.file 6 "Generated_Source\\PSoC5/M1.h"
 196              		.file 7 "Generated_Source\\PSoC5/M2.h"
 197              		.file 8 "Generated_Source\\PSoC5/PFD.h"
 198              		.file 9 "Generated_Source\\PSoC5/Sleep.h"
 199              		.file 10 "Generated_Source\\PSoC5/Reset.h"
 200              		.file 11 "Generated_Source\\PSoC5/Enable.h"
 201              		.file 12 "Generated_Source\\PSoC5/DIR.h"
 202              		.file 13 "Generated_Source\\PSoC5/core_cm3.h"