ARM GAS  C:\Users\andre\AppData\Local\Temp\ccUifOi7.s 			page 1


   1              		.syntax unified
   2              		.cpu cortex-m3
   3              		.fpu softvfp
   4              		.eabi_attribute 20, 1
   5              		.eabi_attribute 21, 1
   6              		.eabi_attribute 23, 3
   7              		.eabi_attribute 24, 1
   8              		.eabi_attribute 25, 1
   9              		.eabi_attribute 26, 1
  10              		.eabi_attribute 30, 1
  11              		.eabi_attribute 34, 1
  12              		.eabi_attribute 18, 4
  13              		.thumb
  14              		.syntax unified
  15              		.file	"sonarSensor.c"
  16              		.text
  17              	.Ltext0:
  18              		.cfi_sections	.debug_frame
  19              		.section	.text.getDistance,"ax",%progbits
  20              		.align	2
  21              		.global	getDistance
  22              		.thumb
  23              		.thumb_func
  24              		.type	getDistance, %function
  25              	getDistance:
  26              	.LFB64:
  27              		.file 1 "sonarSensor.c"
   1:sonarSensor.c **** #include "sonar.h"
   2:sonarSensor.c **** 
   3:sonarSensor.c **** uint16_t getDistance(){
  28              		.loc 1 3 0
  29              		.cfi_startproc
  30              		@ args = 0, pretend = 0, frame = 0
  31              		@ frame_needed = 0, uses_anonymous_args = 0
  32 0000 10B5     		push	{r4, lr}
  33              		.cfi_def_cfa_offset 8
  34              		.cfi_offset 4, -8
  35              		.cfi_offset 14, -4
   4:sonarSensor.c **** 	I2C_Master_MasterSendStart(0x70, I2C_Master_WRITE_XFER_MODE);
  36              		.loc 1 4 0
  37 0002 0021     		movs	r1, #0
  38 0004 7020     		movs	r0, #112
  39 0006 FFF7FEFF 		bl	I2C_Master_MasterSendStart
  40              	.LVL0:
   5:sonarSensor.c **** 	I2C_Master_MasterWriteByte(0x51);
  41              		.loc 1 5 0
  42 000a 5120     		movs	r0, #81
  43 000c FFF7FEFF 		bl	I2C_Master_MasterWriteByte
  44              	.LVL1:
   6:sonarSensor.c **** 	CyDelay(100);
  45              		.loc 1 6 0
  46 0010 6420     		movs	r0, #100
  47 0012 FFF7FEFF 		bl	CyDelay
  48              	.LVL2:
   7:sonarSensor.c **** 	I2C_Master_MasterSendRestart(0x70, 1);
  49              		.loc 1 7 0
  50 0016 0121     		movs	r1, #1
ARM GAS  C:\Users\andre\AppData\Local\Temp\ccUifOi7.s 			page 2


  51 0018 7020     		movs	r0, #112
  52 001a FFF7FEFF 		bl	I2C_Master_MasterSendRestart
  53              	.LVL3:
   8:sonarSensor.c ****     uint8_t first = I2C_Master_MasterReadByte(I2C_Master_ACK_DATA);
  54              		.loc 1 8 0
  55 001e 0120     		movs	r0, #1
  56 0020 FFF7FEFF 		bl	I2C_Master_MasterReadByte
  57              	.LVL4:
  58 0024 0446     		mov	r4, r0
  59              	.LVL5:
   9:sonarSensor.c ****     uint8_t second = I2C_Master_MasterReadByte(I2C_Master_NAK_DATA);
  60              		.loc 1 9 0
  61 0026 0020     		movs	r0, #0
  62 0028 FFF7FEFF 		bl	I2C_Master_MasterReadByte
  63              	.LVL6:
  10:sonarSensor.c **** 	uint16_t distCM = first*256+second;
  64              		.loc 1 10 0
  65 002c 00EB0420 		add	r0, r0, r4, lsl #8
  66              	.LVL7:
  67 0030 84B2     		uxth	r4, r0
  68              	.LVL8:
  11:sonarSensor.c **** 	I2C_Master_MasterSendStop();
  69              		.loc 1 11 0
  70 0032 FFF7FEFF 		bl	I2C_Master_MasterSendStop
  71              	.LVL9:
  12:sonarSensor.c **** 	
  13:sonarSensor.c **** 	return distCM;
  14:sonarSensor.c **** }
  72              		.loc 1 14 0
  73 0036 2046     		mov	r0, r4
  74 0038 10BD     		pop	{r4, pc}
  75              		.cfi_endproc
  76              	.LFE64:
  77              		.size	getDistance, .-getDistance
  78 003a 00BF     		.section	.text.sendData,"ax",%progbits
  79              		.align	2
  80              		.global	sendData
  81              		.thumb
  82              		.thumb_func
  83              		.type	sendData, %function
  84              	sendData:
  85              	.LFB65:
  15:sonarSensor.c **** 
  16:sonarSensor.c **** void sendData(){
  86              		.loc 1 16 0
  87              		.cfi_startproc
  88              		@ args = 0, pretend = 0, frame = 0
  89              		@ frame_needed = 0, uses_anonymous_args = 0
  90 0000 08B5     		push	{r3, lr}
  91              		.cfi_def_cfa_offset 8
  92              		.cfi_offset 3, -8
  93              		.cfi_offset 14, -4
  94              	.LVL10:
  17:sonarSensor.c ****     int minimum = 45; 
  18:sonarSensor.c **** 	int dist = getDistance();
  95              		.loc 1 18 0
  96 0002 FFF7FEFF 		bl	getDistance
ARM GAS  C:\Users\andre\AppData\Local\Temp\ccUifOi7.s 			page 3


  97              	.LVL11:
  19:sonarSensor.c **** 	if(dist < minimum){
  98              		.loc 1 19 0
  99 0006 2C28     		cmp	r0, #44
 100 0008 06DC     		bgt	.L4
  20:sonarSensor.c **** 		sonarOutput_Write(1);
 101              		.loc 1 20 0
 102 000a 0120     		movs	r0, #1
 103              	.LVL12:
 104 000c FFF7FEFF 		bl	sonarOutput_Write
 105              	.LVL13:
  21:sonarSensor.c ****        UART_1_PutString("HIGH\n");  
 106              		.loc 1 21 0
 107 0010 0548     		ldr	r0, .L7
 108 0012 FFF7FEFF 		bl	UART_1_PutString
 109              	.LVL14:
 110 0016 08BD     		pop	{r3, pc}
 111              	.LVL15:
 112              	.L4:
  22:sonarSensor.c **** 	} 
  23:sonarSensor.c ****     else {
  24:sonarSensor.c ****         UART_1_PutString("LOW\n");
 113              		.loc 1 24 0
 114 0018 0448     		ldr	r0, .L7+4
 115              	.LVL16:
 116 001a FFF7FEFF 		bl	UART_1_PutString
 117              	.LVL17:
  25:sonarSensor.c **** 		sonarOutput_Write(0);
 118              		.loc 1 25 0
 119 001e 0020     		movs	r0, #0
 120 0020 FFF7FEFF 		bl	sonarOutput_Write
 121              	.LVL18:
 122 0024 08BD     		pop	{r3, pc}
 123              	.L8:
 124 0026 00BF     		.align	2
 125              	.L7:
 126 0028 00000000 		.word	.LC0
 127 002c 08000000 		.word	.LC1
 128              		.cfi_endproc
 129              	.LFE65:
 130              		.size	sendData, .-sendData
 131              		.section	.rodata.str1.4,"aMS",%progbits,1
 132              		.align	2
 133              	.LC0:
 134 0000 48494748 		.ascii	"HIGH\012\000"
 134      0A00
 135 0006 0000     		.space	2
 136              	.LC1:
 137 0008 4C4F570A 		.ascii	"LOW\012\000"
 137      00
 138              		.text
 139              	.Letext0:
 140              		.file 2 "c:\\program files (x86)\\cypress\\psoc creator\\4.2\\psoc creator\\import\\gnu\\arm\\5.4.
 141              		.file 3 "c:\\program files (x86)\\cypress\\psoc creator\\4.2\\psoc creator\\import\\gnu\\arm\\5.4.
 142              		.file 4 "Generated_Source\\PSoC5/I2C_Master.h"
 143              		.file 5 "Generated_Source\\PSoC5/CyLib.h"
 144              		.file 6 "Generated_Source\\PSoC5/sonarOutput.h"
ARM GAS  C:\Users\andre\AppData\Local\Temp\ccUifOi7.s 			page 4


 145              		.file 7 "Generated_Source\\PSoC5/UART_1.h"
 146              		.file 8 "Generated_Source\\PSoC5/core_cm3.h"