ARM GAS  C:\Users\andre\AppData\Local\Temp\ccdMhYtr.s 			page 1


   1              		.syntax unified
   2              		.cpu cortex-m3
   3              		.fpu softvfp
   4              		.eabi_attribute 20, 1
   5              		.eabi_attribute 21, 1
   6              		.eabi_attribute 23, 3
   7              		.eabi_attribute 24, 1
   8              		.eabi_attribute 25, 1
   9              		.eabi_attribute 26, 1
  10              		.eabi_attribute 30, 1
  11              		.eabi_attribute 34, 1
  12              		.eabi_attribute 18, 4
  13              		.thumb
  14              		.syntax unified
  15              		.file	"sonar.c"
  16              		.text
  17              	.Ltext0:
  18              		.cfi_sections	.debug_frame
  19              		.section	.text.getDistance,"ax",%progbits
  20              		.align	2
  21              		.global	getDistance
  22              		.thumb
  23              		.thumb_func
  24              		.type	getDistance, %function
  25              	getDistance:
  26              	.LFB64:
  27              		.file 1 "sonar.c"
   1:sonar.c       **** /* ========================================
   2:sonar.c       ****  *
   3:sonar.c       ****  * Copyright YOUR COMPANY, THE YEAR
   4:sonar.c       ****  * All Rights Reserved
   5:sonar.c       ****  * UNPUBLISHED, LICENSED SOFTWARE.
   6:sonar.c       ****  *
   7:sonar.c       ****  * CONFIDENTIAL AND PROPRIETARY INFORMATION
   8:sonar.c       ****  * WHICH IS THE PROPERTY OF your company.
   9:sonar.c       ****  *
  10:sonar.c       ****  * ========================================
  11:sonar.c       **** */
  12:sonar.c       **** #include "sonar.h"
  13:sonar.c       **** 
  14:sonar.c       **** uint16_t getDistance(){
  28              		.loc 1 14 0
  29              		.cfi_startproc
  30              		@ args = 0, pretend = 0, frame = 0
  31              		@ frame_needed = 0, uses_anonymous_args = 0
  32 0000 10B5     		push	{r4, lr}
  33              		.cfi_def_cfa_offset 8
  34              		.cfi_offset 4, -8
  35              		.cfi_offset 14, -4
  15:sonar.c       **** 	I2C_Master_MasterSendStart(0x70, I2C_Master_WRITE_XFER_MODE);
  36              		.loc 1 15 0
  37 0002 0021     		movs	r1, #0
  38 0004 7020     		movs	r0, #112
  39 0006 FFF7FEFF 		bl	I2C_Master_MasterSendStart
  40              	.LVL0:
  16:sonar.c       **** 	I2C_Master_MasterWriteByte(0x51);
  41              		.loc 1 16 0
ARM GAS  C:\Users\andre\AppData\Local\Temp\ccdMhYtr.s 			page 2


  42 000a 5120     		movs	r0, #81
  43 000c FFF7FEFF 		bl	I2C_Master_MasterWriteByte
  44              	.LVL1:
  17:sonar.c       **** 	CyDelay(100);
  45              		.loc 1 17 0
  46 0010 6420     		movs	r0, #100
  47 0012 FFF7FEFF 		bl	CyDelay
  48              	.LVL2:
  18:sonar.c       **** 	I2C_Master_MasterSendRestart(0x70, 1);
  49              		.loc 1 18 0
  50 0016 0121     		movs	r1, #1
  51 0018 7020     		movs	r0, #112
  52 001a FFF7FEFF 		bl	I2C_Master_MasterSendRestart
  53              	.LVL3:
  19:sonar.c       ****     uint8_t first = I2C_Master_MasterReadByte(I2C_Master_ACK_DATA);
  54              		.loc 1 19 0
  55 001e 0120     		movs	r0, #1
  56 0020 FFF7FEFF 		bl	I2C_Master_MasterReadByte
  57              	.LVL4:
  58 0024 0446     		mov	r4, r0
  59              	.LVL5:
  20:sonar.c       ****     uint8_t second = I2C_Master_MasterReadByte(I2C_Master_NAK_DATA);
  60              		.loc 1 20 0
  61 0026 0020     		movs	r0, #0
  62 0028 FFF7FEFF 		bl	I2C_Master_MasterReadByte
  63              	.LVL6:
  21:sonar.c       **** 	uint16_t distCM = first*256+second;
  64              		.loc 1 21 0
  65 002c 00EB0420 		add	r0, r0, r4, lsl #8
  66              	.LVL7:
  67 0030 84B2     		uxth	r4, r0
  68              	.LVL8:
  22:sonar.c       **** 	I2C_Master_MasterSendStop();
  69              		.loc 1 22 0
  70 0032 FFF7FEFF 		bl	I2C_Master_MasterSendStop
  71              	.LVL9:
  23:sonar.c       **** 	
  24:sonar.c       **** 	return distCM;
  25:sonar.c       **** }
  72              		.loc 1 25 0
  73 0036 2046     		mov	r0, r4
  74 0038 10BD     		pop	{r4, pc}
  75              		.cfi_endproc
  76              	.LFE64:
  77              		.size	getDistance, .-getDistance
  78 003a 00BF     		.section	.text.sendData,"ax",%progbits
  79              		.align	2
  80              		.global	sendData
  81              		.thumb
  82              		.thumb_func
  83              		.type	sendData, %function
  84              	sendData:
  85              	.LFB65:
  26:sonar.c       **** 
  27:sonar.c       **** void sendData(){
  86              		.loc 1 27 0
  87              		.cfi_startproc
ARM GAS  C:\Users\andre\AppData\Local\Temp\ccdMhYtr.s 			page 3


  88              		@ args = 0, pretend = 0, frame = 0
  89              		@ frame_needed = 0, uses_anonymous_args = 0
  90 0000 08B5     		push	{r3, lr}
  91              		.cfi_def_cfa_offset 8
  92              		.cfi_offset 3, -8
  93              		.cfi_offset 14, -4
  28:sonar.c       **** 	int dist = getDistance();
  94              		.loc 1 28 0
  95 0002 FFF7FEFF 		bl	getDistance
  96              	.LVL10:
  29:sonar.c       **** 	if(dist < 30){
  97              		.loc 1 29 0
  98 0006 1D28     		cmp	r0, #29
  99 0008 03DC     		bgt	.L4
  30:sonar.c       **** 		Pin1_Write(1);
 100              		.loc 1 30 0
 101 000a 0120     		movs	r0, #1
 102              	.LVL11:
 103 000c FFF7FEFF 		bl	Pin1_Write
 104              	.LVL12:
 105 0010 08BD     		pop	{r3, pc}
 106              	.LVL13:
 107              	.L4:
  31:sonar.c       **** 	} 
  32:sonar.c       ****     else {
  33:sonar.c       **** 		Pin1_Write(0);
 108              		.loc 1 33 0
 109 0012 0020     		movs	r0, #0
 110              	.LVL14:
 111 0014 FFF7FEFF 		bl	Pin1_Write
 112              	.LVL15:
 113 0018 08BD     		pop	{r3, pc}
 114              		.cfi_endproc
 115              	.LFE65:
 116              		.size	sendData, .-sendData
 117 001a 00BF     		.text
 118              	.Letext0:
 119              		.file 2 "c:\\program files (x86)\\cypress\\psoc creator\\4.2\\psoc creator\\import\\gnu\\arm\\5.4.
 120              		.file 3 "c:\\program files (x86)\\cypress\\psoc creator\\4.2\\psoc creator\\import\\gnu\\arm\\5.4.
 121              		.file 4 "Generated_Source\\PSoC5/I2C_Master.h"
 122              		.file 5 "Generated_Source\\PSoC5/CyLib.h"
 123              		.file 6 "Generated_Source\\PSoC5/Pin1.h"
 124              		.file 7 "Generated_Source\\PSoC5/core_cm3.h"