ARM GAS  C:\Users\andre\AppData\Local\Temp\ccuECvZH.s 			page 1


   1              		.syntax unified
   2              		.cpu cortex-m3
   3              		.fpu softvfp
   4              		.eabi_attribute 20, 1
   5              		.eabi_attribute 21, 1
   6              		.eabi_attribute 23, 3
   7              		.eabi_attribute 24, 1
   8              		.eabi_attribute 25, 1
   9              		.eabi_attribute 26, 1
  10              		.eabi_attribute 30, 1
  11              		.eabi_attribute 34, 1
  12              		.eabi_attribute 18, 4
  13              		.thumb
  14              		.syntax unified
  15              		.file	"motorFunktioner.c"
  16              		.text
  17              	.Ltext0:
  18              		.cfi_sections	.debug_frame
  19              		.section	.text.searchBall,"ax",%progbits
  20              		.align	2
  21              		.global	searchBall
  22              		.thumb
  23              		.thumb_func
  24              		.type	searchBall, %function
  25              	searchBall:
  26              	.LFB63:
  27              		.file 1 "motorFunktioner.c"
   1:motorFunktioner.c **** /* ========================================
   2:motorFunktioner.c ****  *
   3:motorFunktioner.c ****  * Copyright YOUR COMPANY, THE YEAR
   4:motorFunktioner.c ****  * All Rights Reserved
   5:motorFunktioner.c ****  * UNPUBLISHED, LICENSED SOFTWARE.
   6:motorFunktioner.c ****  *
   7:motorFunktioner.c ****  * CONFIDENTIAL AND PROPRIETARY INFORMATION
   8:motorFunktioner.c ****  * WHICH IS THE PROPERTY OF your company.
   9:motorFunktioner.c ****  *
  10:motorFunktioner.c ****  * ========================================
  11:motorFunktioner.c **** */
  12:motorFunktioner.c **** #include "motorFunktioner.h"
  13:motorFunktioner.c **** 
  14:motorFunktioner.c **** void searchBall(int calL, int calR, int PWML, int PWMR)
  15:motorFunktioner.c **** {
  28              		.loc 1 15 0
  29              		.cfi_startproc
  30              		@ args = 0, pretend = 0, frame = 0
  31              		@ frame_needed = 0, uses_anonymous_args = 0
  32              	.LVL0:
  33 0000 F8B5     		push	{r3, r4, r5, r6, r7, lr}
  34              		.cfi_def_cfa_offset 24
  35              		.cfi_offset 3, -24
  36              		.cfi_offset 4, -20
  37              		.cfi_offset 5, -16
  38              		.cfi_offset 6, -12
  39              		.cfi_offset 7, -8
  40              		.cfi_offset 14, -4
  41 0002 0746     		mov	r7, r0
  42 0004 0E46     		mov	r6, r1
ARM GAS  C:\Users\andre\AppData\Local\Temp\ccuECvZH.s 			page 2


  43 0006 1546     		mov	r5, r2
  44 0008 1C46     		mov	r4, r3
  16:motorFunktioner.c ****     mode_Write(0b00001010);
  45              		.loc 1 16 0
  46 000a 0A20     		movs	r0, #10
  47              	.LVL1:
  48 000c FFF7FEFF 		bl	mode_Write
  49              	.LVL2:
  17:motorFunktioner.c ****     Motorpwm_Left_WriteCompare (calL + PWML);
  50              		.loc 1 17 0
  51 0010 7819     		adds	r0, r7, r5
  52 0012 C0B2     		uxtb	r0, r0
  53 0014 FFF7FEFF 		bl	Motorpwm_Left_WriteCompare
  54              	.LVL3:
  18:motorFunktioner.c ****     Motorpwm_right_WriteCompare(calR + PWMR);   
  55              		.loc 1 18 0
  56 0018 3019     		adds	r0, r6, r4
  57 001a C0B2     		uxtb	r0, r0
  58 001c FFF7FEFF 		bl	Motorpwm_right_WriteCompare
  59              	.LVL4:
  60 0020 F8BD     		pop	{r3, r4, r5, r6, r7, pc}
  61              		.cfi_endproc
  62              	.LFE63:
  63              		.size	searchBall, .-searchBall
  64 0022 00BF     		.section	.text.korFrem,"ax",%progbits
  65              		.align	2
  66              		.global	korFrem
  67              		.thumb
  68              		.thumb_func
  69              		.type	korFrem, %function
  70              	korFrem:
  71              	.LFB64:
  19:motorFunktioner.c **** }
  20:motorFunktioner.c **** 
  21:motorFunktioner.c **** void korFrem(int calL, int calR, int PWML, int PWMR) {
  72              		.loc 1 21 0
  73              		.cfi_startproc
  74              		@ args = 0, pretend = 0, frame = 0
  75              		@ frame_needed = 0, uses_anonymous_args = 0
  76              	.LVL5:
  77 0000 F8B5     		push	{r3, r4, r5, r6, r7, lr}
  78              		.cfi_def_cfa_offset 24
  79              		.cfi_offset 3, -24
  80              		.cfi_offset 4, -20
  81              		.cfi_offset 5, -16
  82              		.cfi_offset 6, -12
  83              		.cfi_offset 7, -8
  84              		.cfi_offset 14, -4
  85 0002 0746     		mov	r7, r0
  86 0004 0E46     		mov	r6, r1
  87 0006 1546     		mov	r5, r2
  88 0008 1C46     		mov	r4, r3
  22:motorFunktioner.c **** mode_Write(0b00001000);
  89              		.loc 1 22 0
  90 000a 0820     		movs	r0, #8
  91              	.LVL6:
  92 000c FFF7FEFF 		bl	mode_Write
ARM GAS  C:\Users\andre\AppData\Local\Temp\ccuECvZH.s 			page 3


  93              	.LVL7:
  23:motorFunktioner.c **** Motorpwm_Left_WriteCompare (calL + PWML);
  94              		.loc 1 23 0
  95 0010 7819     		adds	r0, r7, r5
  96 0012 C0B2     		uxtb	r0, r0
  97 0014 FFF7FEFF 		bl	Motorpwm_Left_WriteCompare
  98              	.LVL8:
  24:motorFunktioner.c **** Motorpwm_right_WriteCompare(calR + PWMR);
  99              		.loc 1 24 0
 100 0018 3019     		adds	r0, r6, r4
 101 001a C0B2     		uxtb	r0, r0
 102 001c FFF7FEFF 		bl	Motorpwm_right_WriteCompare
 103              	.LVL9:
 104 0020 F8BD     		pop	{r3, r4, r5, r6, r7, pc}
 105              		.cfi_endproc
 106              	.LFE64:
 107              		.size	korFrem, .-korFrem
 108 0022 00BF     		.section	.text.fastStop,"ax",%progbits
 109              		.align	2
 110              		.global	fastStop
 111              		.thumb
 112              		.thumb_func
 113              		.type	fastStop, %function
 114              	fastStop:
 115              	.LFB65:
  25:motorFunktioner.c **** }
  26:motorFunktioner.c **** 
  27:motorFunktioner.c **** void fastStop() {
 116              		.loc 1 27 0
 117              		.cfi_startproc
 118              		@ args = 0, pretend = 0, frame = 0
 119              		@ frame_needed = 0, uses_anonymous_args = 0
 120 0000 08B5     		push	{r3, lr}
 121              		.cfi_def_cfa_offset 8
 122              		.cfi_offset 3, -8
 123              		.cfi_offset 14, -4
  28:motorFunktioner.c **** mode_Write(0b00001001);
 124              		.loc 1 28 0
 125 0002 0920     		movs	r0, #9
 126 0004 FFF7FEFF 		bl	mode_Write
 127              	.LVL10:
 128 0008 08BD     		pop	{r3, pc}
 129              		.cfi_endproc
 130              	.LFE65:
 131              		.size	fastStop, .-fastStop
 132 000a 00BF     		.section	.text.stop,"ax",%progbits
 133              		.align	2
 134              		.global	stop
 135              		.thumb
 136              		.thumb_func
 137              		.type	stop, %function
 138              	stop:
 139              	.LFB66:
  29:motorFunktioner.c **** }
  30:motorFunktioner.c **** 
  31:motorFunktioner.c **** void stop(){
 140              		.loc 1 31 0
ARM GAS  C:\Users\andre\AppData\Local\Temp\ccuECvZH.s 			page 4


 141              		.cfi_startproc
 142              		@ args = 0, pretend = 0, frame = 0
 143              		@ frame_needed = 0, uses_anonymous_args = 0
 144 0000 08B5     		push	{r3, lr}
 145              		.cfi_def_cfa_offset 8
 146              		.cfi_offset 3, -8
 147              		.cfi_offset 14, -4
  32:motorFunktioner.c **** mode_Write(0b00000000);
 148              		.loc 1 32 0
 149 0002 0020     		movs	r0, #0
 150 0004 FFF7FEFF 		bl	mode_Write
 151              	.LVL11:
 152 0008 08BD     		pop	{r3, pc}
 153              		.cfi_endproc
 154              	.LFE66:
 155              		.size	stop, .-stop
 156 000a 00BF     		.section	.text.kortilbage,"ax",%progbits
 157              		.align	2
 158              		.global	kortilbage
 159              		.thumb
 160              		.thumb_func
 161              		.type	kortilbage, %function
 162              	kortilbage:
 163              	.LFB67:
  33:motorFunktioner.c **** }
  34:motorFunktioner.c **** 
  35:motorFunktioner.c **** void kortilbage(int calL, int calR, int PWML, int PWMR) {
 164              		.loc 1 35 0
 165              		.cfi_startproc
 166              		@ args = 0, pretend = 0, frame = 0
 167              		@ frame_needed = 0, uses_anonymous_args = 0
 168              	.LVL12:
 169 0000 F8B5     		push	{r3, r4, r5, r6, r7, lr}
 170              		.cfi_def_cfa_offset 24
 171              		.cfi_offset 3, -24
 172              		.cfi_offset 4, -20
 173              		.cfi_offset 5, -16
 174              		.cfi_offset 6, -12
 175              		.cfi_offset 7, -8
 176              		.cfi_offset 14, -4
 177 0002 0746     		mov	r7, r0
 178 0004 0E46     		mov	r6, r1
 179 0006 1546     		mov	r5, r2
 180 0008 1C46     		mov	r4, r3
  36:motorFunktioner.c **** mode_Write(0b00011110);
 181              		.loc 1 36 0
 182 000a 1E20     		movs	r0, #30
 183              	.LVL13:
 184 000c FFF7FEFF 		bl	mode_Write
 185              	.LVL14:
  37:motorFunktioner.c **** Motorpwm_Left_WriteCompare (calL + PWML);
 186              		.loc 1 37 0
 187 0010 7819     		adds	r0, r7, r5
 188 0012 C0B2     		uxtb	r0, r0
 189 0014 FFF7FEFF 		bl	Motorpwm_Left_WriteCompare
 190              	.LVL15:
  38:motorFunktioner.c **** Motorpwm_right_WriteCompare(calR + PWMR);
ARM GAS  C:\Users\andre\AppData\Local\Temp\ccuECvZH.s 			page 5


 191              		.loc 1 38 0
 192 0018 3019     		adds	r0, r6, r4
 193 001a C0B2     		uxtb	r0, r0
 194 001c FFF7FEFF 		bl	Motorpwm_right_WriteCompare
 195              	.LVL16:
 196 0020 F8BD     		pop	{r3, r4, r5, r6, r7, pc}
 197              		.cfi_endproc
 198              	.LFE67:
 199              		.size	kortilbage, .-kortilbage
 200 0022 00BF     		.section	.text.drejHojre,"ax",%progbits
 201              		.align	2
 202              		.global	drejHojre
 203              		.thumb
 204              		.thumb_func
 205              		.type	drejHojre, %function
 206              	drejHojre:
 207              	.LFB68:
  39:motorFunktioner.c **** }
  40:motorFunktioner.c **** 
  41:motorFunktioner.c **** void drejHojre(int calL, int calR, int PWML, int PWMR){
 208              		.loc 1 41 0
 209              		.cfi_startproc
 210              		@ args = 0, pretend = 0, frame = 0
 211              		@ frame_needed = 0, uses_anonymous_args = 0
 212              	.LVL17:
 213 0000 F8B5     		push	{r3, r4, r5, r6, r7, lr}
 214              		.cfi_def_cfa_offset 24
 215              		.cfi_offset 3, -24
 216              		.cfi_offset 4, -20
 217              		.cfi_offset 5, -16
 218              		.cfi_offset 6, -12
 219              		.cfi_offset 7, -8
 220              		.cfi_offset 14, -4
 221 0002 0746     		mov	r7, r0
 222 0004 0E46     		mov	r6, r1
 223 0006 1546     		mov	r5, r2
 224 0008 1C46     		mov	r4, r3
  42:motorFunktioner.c **** 
  43:motorFunktioner.c **** mode_Write(0b00001010);
 225              		.loc 1 43 0
 226 000a 0A20     		movs	r0, #10
 227              	.LVL18:
 228 000c FFF7FEFF 		bl	mode_Write
 229              	.LVL19:
  44:motorFunktioner.c **** Motorpwm_Left_WriteCompare (calL + PWML);
 230              		.loc 1 44 0
 231 0010 7819     		adds	r0, r7, r5
 232 0012 C0B2     		uxtb	r0, r0
 233 0014 FFF7FEFF 		bl	Motorpwm_Left_WriteCompare
 234              	.LVL20:
  45:motorFunktioner.c **** Motorpwm_right_WriteCompare(calR + PWMR);
 235              		.loc 1 45 0
 236 0018 3019     		adds	r0, r6, r4
 237 001a C0B2     		uxtb	r0, r0
 238 001c FFF7FEFF 		bl	Motorpwm_right_WriteCompare
 239              	.LVL21:
 240 0020 F8BD     		pop	{r3, r4, r5, r6, r7, pc}
ARM GAS  C:\Users\andre\AppData\Local\Temp\ccuECvZH.s 			page 6


 241              		.cfi_endproc
 242              	.LFE68:
 243              		.size	drejHojre, .-drejHojre
 244 0022 00BF     		.section	.text.drejVenstre,"ax",%progbits
 245              		.align	2
 246              		.global	drejVenstre
 247              		.thumb
 248              		.thumb_func
 249              		.type	drejVenstre, %function
 250              	drejVenstre:
 251              	.LFB69:
  46:motorFunktioner.c **** }
  47:motorFunktioner.c **** 
  48:motorFunktioner.c **** void drejVenstre(int calL, int calR, int PWML, int PWMR){
 252              		.loc 1 48 0
 253              		.cfi_startproc
 254              		@ args = 0, pretend = 0, frame = 0
 255              		@ frame_needed = 0, uses_anonymous_args = 0
 256              	.LVL22:
 257 0000 F8B5     		push	{r3, r4, r5, r6, r7, lr}
 258              		.cfi_def_cfa_offset 24
 259              		.cfi_offset 3, -24
 260              		.cfi_offset 4, -20
 261              		.cfi_offset 5, -16
 262              		.cfi_offset 6, -12
 263              		.cfi_offset 7, -8
 264              		.cfi_offset 14, -4
 265 0002 0746     		mov	r7, r0
 266 0004 0E46     		mov	r6, r1
 267 0006 1546     		mov	r5, r2
 268 0008 1C46     		mov	r4, r3
  49:motorFunktioner.c **** 
  50:motorFunktioner.c **** mode_Write(0b00001100);
 269              		.loc 1 50 0
 270 000a 0C20     		movs	r0, #12
 271              	.LVL23:
 272 000c FFF7FEFF 		bl	mode_Write
 273              	.LVL24:
  51:motorFunktioner.c **** Motorpwm_Left_WriteCompare (calL + PWML);
 274              		.loc 1 51 0
 275 0010 7819     		adds	r0, r7, r5
 276 0012 C0B2     		uxtb	r0, r0
 277 0014 FFF7FEFF 		bl	Motorpwm_Left_WriteCompare
 278              	.LVL25:
  52:motorFunktioner.c **** Motorpwm_right_WriteCompare(calR + PWMR);
 279              		.loc 1 52 0
 280 0018 3019     		adds	r0, r6, r4
 281 001a C0B2     		uxtb	r0, r0
 282 001c FFF7FEFF 		bl	Motorpwm_right_WriteCompare
 283              	.LVL26:
 284 0020 F8BD     		pop	{r3, r4, r5, r6, r7, pc}
 285              		.cfi_endproc
 286              	.LFE69:
 287              		.size	drejVenstre, .-drejVenstre
 288 0022 00BF     		.text
 289              	.Letext0:
 290              		.file 2 "c:\\program files (x86)\\cypress\\psoc creator\\4.2\\psoc creator\\import\\gnu\\arm\\5.4.
ARM GAS  C:\Users\andre\AppData\Local\Temp\ccuECvZH.s 			page 7


 291              		.file 3 "c:\\program files (x86)\\cypress\\psoc creator\\4.2\\psoc creator\\import\\gnu\\arm\\5.4.
 292              		.file 4 "Generated_Source\\PSoC5/mode.h"
 293              		.file 5 "Generated_Source\\PSoC5/Motorpwm_Left.h"
 294              		.file 6 "Generated_Source\\PSoC5/Motorpwm_right.h"
 295              		.file 7 "Generated_Source\\PSoC5/core_cm3.h"